(dp0
S'Basketball'
p1
(dp2
S'is_leaf'
p3
I01
sS'parent'
p4
S'Sports'
p5
sS'sub_categories'
p6
c__builtin__
set
p7
((lp8
tp9
Rp10
sS'coverage'
p11
I19
sS'specificity'
p12
F0.0
sS'probes'
p13
(dp14
S'shaq'
p15
(lp16
sS'laettner'
p17
(lp18
sS'knicks'
p19
(lp20
sS'wnba'
p21
(lp22
sS'laker'
p23
(lp24
sS'blazers'
p25
(lp26
Vhttps://hub.docker.com/u/agiletrailblazers/
p27
aVhttps://hub.docker.com/r/agiletrailblazers/motd-web/
p28
aVhttps://hub.docker.com/r/agiletrailblazers/motd-web/tags/
p29
aVhttps://hub.docker.com/r/agiletrailblazers/jenkins_demo/tags/
p30
aVhttps://hub.docker.com/r/agiletrailblazers/node_image/
p31
aVhttps://hub.docker.com/r/agiletrailblazers/motd-api/tags/
p32
aVhttps://hub.docker.com/r/agiletrailblazers/pool2-18f/
p33
aVhttps://hub.docker.com/r/agiletrailblazers/motd-api/
p34
aVhttps://hub.docker.com/r/agiletrailblazers/jenkins_demo/
p35
asS'sabonis'
p36
(lp37
sS'pacers'
p38
(lp39
sS'shaquille'
p40
(lp41
sS'kobe'
p42
(lp43
Vhttps://hub.docker.com/r/kobe25/nginx/
p44
asS'nba'
p45
(lp46
Vhttps://hub.docker.com/r/tnanba/rpmbuild/
p47
aVhttps://hub.docker.com/r/tnanba/rpmbuild/tags/
p48
aVhttps://hub.docker.com/r/dtenenba/bioconductor.org/builds/
p49
aVhttps://hub.docker.com/r/dtenenba/jupyter/builds/
p50
aVhttps://hub.docker.com/r/dtenenba/bioconductor.org/tags/
p51
aVhttps://hub.docker.com/r/dtenenba/jupyter/~/dockerfile/
p52
aVhttps://hub.docker.com/r/dtenenba/jupyter/
p53
aVhttps://hub.docker.com/r/dtenenba/bioconductor.org/
p54
aVhttps://hub.docker.com/r/dtenenba/bioconductor.org/~/dockerfile/
p55
asS'rebounds'
p56
(lp57
sS'dunks'
p58
(lp59
sssS'Diseases'
p60
(dp61
g3
I01
sg4
S'Health'
p62
sg6
g7
((lp63
tp64
Rp65
sg11
I39
sg12
F0.0
sg13
(dp66
S'radiation treatment'
p67
(lp68
sS'aspirin cardiologist'
p69
(lp70
sS'cancer'
p71
(lp72
Vhttps://www.docker.com/customers/docker-helps-varian-medical-systems-battle-cancer
p73
aVhttps://hub.docker.com/r/rgardler/fah/
p74
aVhttps://hub.docker.com/r/pancancer/pancancer_launcher/~/dockerfile/
p75
aVhttps://hub.docker.com/r/trausch/tutorial-delly/
p76
aVhttps://hub.docker.com/r/pancancer/pcawg-delly-workflow/
p77
aVhttps://hub.docker.com/r/gregway/hgsc_subtypes/
p78
aVhttps://hub.docker.com/r/ccbc/
p79
aVhttps://blog.docker.com/2016/04/cicd-with-docker-cloud/
p80
aVhttps://docs.docker.com/engine/understanding-docker/
p81
aVhttp://goto.docker.com/Docker-Weekly-09232015.html
p82
asS'hiv'
p83
(lp84
Vhttps://hub.docker.com/r/erwinchang/build-hiv300/
p85
asS'cardiology'
p86
(lp87
sS'dental'
p88
(lp89
Vhttps://www.docker.com/careers
p90
asS'cholesterol doctor'
p91
(lp92
sS'blood insulin'
p93
(lp94
Vhttps://hub.docker.com/r/nightscout/cgm-remote-monitor-development/
p95
asS'cholesterol lipitor'
p96
(lp97
sS'heart surgery'
p98
(lp99
sS'aspirin cholesterol'
p100
(lp101
sS'aids'
p102
(lp103
Vhttps://www.docker.com/docker-news-and-press/docker-hub-accelerates-application-delivery-600-percent
p104
aVhttps://forums.docker.com/faq
p105
aVhttps://hub.docker.com/r/hectcastro/basho-otp/
p106
aVhttps://hub.docker.com/r/oisinmulvihill/docker-zabbix/
p107
aVhttps://blog.docker.com/2015/09/docker-agenda-september/
p108
asS'blood heart'
p109
(lp110
sS'diabetes'
p111
(lp112
Vhttps://hub.docker.com/r/loudnate/rpi-openaps/
p113
aVhttps://hub.docker.com/r/dhermanns/rpi-nightscout/
p114
aVhttps://hub.docker.com/r/kaggle/python/builds/bvyehudxeihi2zfwyqpccun/
p115
aVhttps://hub.docker.com/r/kaggle/python/builds/bjoaiyn2wt5xwyjxwwhztlv/
p116
aVhttps://hub.docker.com/r/kaggle/python/builds/bgh7bebcbuca3ydbuprxszr/
p117
asssS'Computers'
p118
(dp119
g3
I00
sg4
S'Root'
p120
sg6
g7
((lp121
S'Hardware'
p122
aS'Programming'
p123
atp124
Rp125
sg11
I88580
sg12
F0.0
sg13
(dp126
S'applet code'
p127
(lp128
Vhttps://forums.docker.com/t/volume-mounts-in-windows-does-not-work/10693?page=3
p129
aVhttps://hub.docker.com/r/hpsoftware/sitescope/
p130
aVhttps://hub.docker.com/r/kripp/docker-tomcat7/builds/bhpkwkje5wjqiqrbn26ug5r/
p131
aVhttps://hub.docker.com/r/kripp/docker-tomcat7/builds/bvwvuxdjhlopywhfgfpfctf/
p132
aVhttps://hub.docker.com/r/magnetikonline/html5validator/builds/bta7yrcpa6hdclww8j9dmkg/
p133
aVhttps://hub.docker.com/r/maccam912/docker-ubuntu-desktop/builds/br3ffdzhysnydka4s8cxrbj/
p134
aVhttps://hub.docker.com/r/jare/spacemacs/builds/bfglhbjsejc94tbsgwyggyk/
p135
aVhttps://hub.docker.com/r/jare/spacemacs/builds/b9g8bp5qycvghf5mco92c8y/
p136
asS'vb'
p137
(lp138
Vhttps://hub.docker.com/r/microsoft/aspnet/builds/bdsvbud3xjggso3imhcbyw6/
p139
aVhttps://hub.docker.com/r/vbkunin/itop/
p140
aVhttps://hub.docker.com/u/vbkunin/
p141
aVhttps://forums.docker.com/t/change-default-networking-from-host-only-network-to-bridged-with-vb-provider/23849
p142
aVhttps://hub.docker.com/r/malice/shadow-server/
p143
aVhttps://forums.docker.com/c/open-source-projects
p144
aVhttps://hub.docker.com/r/vbkunin/itop/builds/
p145
aVhttps://hub.docker.com/r/vbkunin/itop/~/dockerfile/
p146
aVhttps://hub.docker.com/r/tnolet/mesos-on-coreos/
p147
aVhttps://blog.docker.com/2016/07/docker-for-mac-and-windows-production-ready/
p148
asS'card drivers'
p149
(lp150
Vhttps://blog.docker.com/2015/06/networking-receives-an-upgrade/
p151
aVhttps://hub.docker.com/r/cannyos/atomic_dist_rpmostree/
p152
aVhttps://hub.docker.com/r/brianlow/keras-cuda/
p153
aVhttps://hub.docker.com/r/yantis/wine/
p154
aVhttps://hub.docker.com/r/nicjo814/docker-plexmediaplayer/
p155
aVhttps://hub.docker.com/r/yantis/dynamic-video/
p156
aVhttps://hub.docker.com/r/nicjo814/docker-plexhometheater/
p157
aVhttps://hub.docker.com/r/avsm/xen-arm-builder/
p158
aVhttps://hub.docker.com/
p159
aVhttps://hub.docker.com/r/yantis/virtualgl/
p160
asS'java'
p161
(lp162
Vhttps://hub.docker.com/r/library/java/tags/
p163
aVhttps://hub.docker.com/_/java/
p164
aVhttps://blog.docker.com/2016/09/java-development-using-docker/
p165
aVhttps://hub.docker.com/_/openjdk/
p166
aVhttps://hub.docker.com/r/airdock/oracle-jdk/
p167
aVhttps://hub.docker.com/r/develar/java/
p168
aVhttps://hub.docker.com/r/ibmcom/ibmjava/
p169
aVhttps://hub.docker.com/_/ibmjava/
p170
aVhttps://hub.docker.com/r/unicon/shibboleth-idp/
p171
aVhttps://www.docker.com/
p172
asS'application windows'
p173
(lp174
Vhttps://docs.docker.com/
p175
aVhttps://docs.docker.com/engine/installation/windows/
p176
aVhttps://www.docker.com/
p177
aVhttps://www.docker.com/products/docker
p178
aVhttps://blog.docker.com/2016/09/dockerforws2016/
p179
aVhttps://blog.docker.com/2016/10/docker-on-windows/
p180
aVhttps://www.docker.com/docker-news-and-press/docker-released-native-mac-and-windows-apps-optimize-developer-experience
p181
aVhttps://docs.docker.com/engine/tutorials/usingdocker/
p182
aVhttps://www.docker.com/what-docker
p183
aVhttps://blog.docker.com/
p184
asS'card pc'
p185
(lp186
Vhttps://www.docker.com/
p187
aVhttps://forums.docker.com/t/unable-to-write-to-the-database-exit-code-1/18176
p188
aVhttps://hub.docker.com/
p189
aVhttps://hub.docker.com/r/kerberos/web/
p190
aVhttps://hub.docker.com/r/kerberos/machinery/
p191
aVhttps://hub.docker.com/r/openstf/stf/
p192
aVhttps://forums.docker.com/t/settings-reset-to-default-quits-with-error-resolved/8303
p193
aVhttps://hub.docker.com/r/boot2docker/boot2docker/builds/bmwjdkejwhmyd8tgludsvjr/
p194
aVhttps://hub.docker.com/r/tobbenb/tvheadend-unstable/builds/bzg66bdvfta7oeewagj7jwd/
p195
aVhttps://hub.docker.com/r/bettervoice/freeswitch-container/builds/bo2udgfdbcnuu65afb6fzur/
p196
asS'avi file'
p197
(lp198
Vhttps://hub.docker.com/r/bmst/gif-create/~/dockerfile/
p199
aVhttps://hub.docker.com/r/ultravideo/kvazaar/~/dockerfile/
p200
aVhttps://hub.docker.com/r/bmst/gif-create/
p201
aVhttps://www.docker.com/find-partner
p202
aVhttps://hub.docker.com/r/ivandotv/ffmpeg-split-video/
p203
aVhttps://blog.docker.com/2016/09/build-your-first-docker-windows-server-container/
p204
aVhttps://hub.docker.com/r/wesleyvalger/squid3/
p205
aVhttps://hub.docker.com/r/masieroi/docker-liferay/builds/bpcfvdav6hhfm6ssqyrnjpl/
p206
aVhttps://hub.docker.com/r/deitch/mysql-backup/
p207
aVhttps://hub.docker.com/r/pajinek/greentea/builds/bfvlqbrkpgwzx47sbj8rfae/
p208
asS'buffer code'
p209
(lp210
Vhttps://forums.docker.com/t/wordpress-example-doesnt-start-the-web-container/9259
p211
aVhttps://hub.docker.com/r/bufferoverflow/fossology/builds/bsad2jbbvyjsfb3nj6zrul6/
p212
aVhttps://hub.docker.com/r/markadams/chromium-xvfb-js/
p213
aVhttps://hub.docker.com/r/malikoth/pyv8-python3/
p214
aVhttps://docs.docker.com/engine/reference/commandline/attach/
p215
aVhttps://hub.docker.com/r/jare/vim-bundle/
p216
aVhttps://hub.docker.com/r/raychaser/logspout-http/
p217
aVhttps://hub.docker.com/_/mysql/
p218
aVhttps://forums.docker.com/t/javascript-gulp-build-errors-error-ebadf-bad-file-descriptor-read/13564
p219
aVhttps://docs.docker.com/v1.6/registry/spec/auth/token/
p220
asS'multimedia'
p221
(lp222
Vhttps://hub.docker.com/r/tiangolo/nginx-rtmp/
p223
aVhttps://hub.docker.com/r/harek/rtorrent-rutorrent-qnap-qts/
p224
aVhttps://hub.docker.com/r/gmacario/build-yocto-fsl-arm/
p225
aVhttps://hub.docker.com/r/lewisl9029/toc-dev/
p226
aVhttps://hub.docker.com/r/kfei/docktorrent/~/dockerfile/
p227
aVhttps://hub.docker.com/r/wlmb/perldatalanguage/
p228
aVhttps://blog.docker.com/2015/11/docker-agenda-november/
p229
aVhttps://hub.docker.com/r/pontostroy/gearsongallium-docker/~/dockerfile/
p230
aVhttps://goto.docker.com/Docker-Weekly-11112015.html
p231
aVhttps://blog.docker.com/2013/11/docker-0-7-docker-now-runs-on-any-linux-distribution/
p232
asS'bytes code'
p233
(lp234
Vhttps://forums.docker.com/t/installation-issue/17814
p235
aVhttps://docs.docker.com/engine/reference/api/docker_remote_api_v1.23/
p236
aVhttps://docs.docker.com/engine/reference/commandline/build/
p237
aVhttps://hub.docker.com/r/tarantool/tarantool/
p238
aVhttps://docs.docker.com/v1.11/engine/reference/commandline/build/
p239
aVhttps://docs.docker.com/v1.11/opensource/project/set-up-git/
p240
aVhttps://docs.docker.com/opensource/project/set-up-git/
p241
aVhttps://docs.docker.com/registry/spec/api/index.html
p242
aVhttps://docs.docker.com/engine/reference/api/docker_remote_api_v1.19/
p243
aVhttps://docs.docker.com/engine/reference/api/docker_remote_api_v1.22/
p244
asS'module'
p245
(lp246
Vhttps://docs.docker.com/engine/admin/puppet/
p247
aVhttps://hub.docker.com/r/ansible/ubuntu14.04-ansible/
p248
aVhttps://hub.docker.com/r/bettervoice/freeswitch-container/
p249
aVhttps://hub.docker.com/r/eboraas/apache-php/
p250
aVhttps://forums.docker.com/t/modules-not-found-ubuntu-14-04/3324
p251
aVhttps://hub.docker.com/r/exira/nginx/~/dockerfile/
p252
aVhttps://hub.docker.com/r/tleyden5iwx/ubuntu-cuda/
p253
aVhttps://hub.docker.com/_/httpd/
p254
aVhttps://docs.docker.com/engine/security/seccomp/
p255
aVhttps://www.docker.com/
p256
asS'perl'
p257
(lp258
Vhttps://hub.docker.com/_/perl/
p259
aVhttps://hub.docker.com/r/armhf/perl/
p260
aVhttps://hub.docker.com/r/centos/perl-520-centos7/
p261
aVhttps://forums.docker.com/t/perl-segmentation-fault-oracle-12c-install-docker-mac-mac-pro/18256
p262
aVhttps://hub.docker.com/r/quantumobject/docker-cacti/
p263
aVhttps://hub.docker.com/r/mj41/perl6-star/
p264
aVhttps://hub.docker.com/_/rakudo-star/
p265
aVhttps://hub.docker.com/r/ansibleshipyard/ansible-perl/
p266
aVhttps://www.docker.com/
p267
aVhttps://hub.docker.com/
p268
asS'bios'
p269
(lp270
Vhttps://hub.docker.com/u/bios/
p271
aVhttps://hub.docker.com/r/bios/docker-owncloud/
p272
aVhttps://docs.docker.com/engine/admin/
p273
aVhttps://hub.docker.com/r/jdelaros1/openmanage/
p274
aVhttps://docs.docker.com/docker-for-windows/troubleshoot/
p275
aVhttps://hub.docker.com/r/bios/docker-yourls/
p276
aVhttps://hub.docker.com/r/bios/docker-owncloud/builds/
p277
aVhttps://forums.docker.com/t/installing-docker-on-windows-10-home/11722
p278
aVhttps://www.docker.com/
p279
aVhttps://forums.docker.com/t/unable-to-start-docker-machine-with-virtualbox-virtuallzation-enabled-already/17283
p280
asS'audio file'
p281
(lp282
Vhttps://docs.docker.com/engine/reference/run/
p283
aVhttps://forums.docker.com/t/pulseaudio-server-connection-failure/12650
p284
aVhttps://hub.docker.com/_/nginx/
p285
aVhttps://hub.docker.com/r/bettervoice/freeswitch-container/
p286
aVhttps://hub.docker.com/r/alecharp/get-videos/
p287
aVhttps://docs.docker.com/engine/installation/windows/
p288
aVhttps://forums.docker.com/t/device-files-missing-when-i-use-any-rhel-image-but-visible-in-any-ubuntu-image/787
p289
aVhttps://hub.docker.com/r/chrisdaish/vlc/
p290
aVhttps://forums.docker.com/t/solved-docker-toolbox-1-8-1b-on-windows-7-fails/3054
p291
aVhttps://hub.docker.com/r/luis/echoprint-codegen/~/dockerfile/
p292
asS'pc windows'
p293
(lp294
Vhttps://docs.docker.com/engine/installation/windows/
p295
aVhttps://blog.docker.com/2016/09/dockerforws2016/
p296
aVhttps://blog.docker.com/2015/06/kitematic-windows-alpha/
p297
aVhttps://blog.docker.com/tag/windows/
p298
aVhttps://www.docker.com/products/docker
p299
aVhttps://forums.docker.com/c/docker-for-windows
p300
aVhttps://docs.docker.com/engine/installation/
p301
aVhttps://docs.docker.com/docker-for-windows/troubleshoot/
p302
aVhttps://www.docker.com/
p303
aVhttps://forums.docker.com/t/support-for-windows-containers-on-windows-10/13888
p304
asS'card graphics'
p305
(lp306
Vhttps://hub.docker.com/r/dorakorpar/nsgui/
p307
aVhttps://hub.docker.com/r/yantis/virtualgl/
p308
aVhttps://hub.docker.com/r/yantis/wine/
p309
aVhttps://hub.docker.com/r/cannyos/atomic_dist_rpmostree/
p310
aVhttps://hub.docker.com/r/yantis/dynamic-video/
p311
aVhttps://hub.docker.com/r/nicjo814/docker-plexhometheater/
p312
aVhttps://hub.docker.com/r/nicjo814/docker-plexmediaplayer/
p313
aVhttps://hub.docker.com/r/dhart/opencog/
p314
aVhttps://www.docker.com/docker-terms-service
p315
aVhttps://forums.docker.com/t/my-docker-crash-and-exit-suddenly/15318
p316
asS'array code'
p317
(lp318
Vhttps://docs.docker.com/docker-cloud/apps/stack-yaml-reference/
p319
aVhttps://docs.docker.com/engine/reference/builder/
p320
aVhttps://docs.docker.com/compose/compose-file/
p321
aVhttps://docs.docker.com/v1.5/reference/builder/
p322
aVhttps://www.docker.com/sites/default/files/Understanding-Docker-Data-Storage-WP-rev3.pdf
p323
aVhttps://goto.docker.com/rs/929-FJL-178/images/Docker-Survey-2016.pdf
p324
aVhttps://hub.docker.com/_/node/
p325
aVhttps://docs.docker.com/v1.6/registry/spec/auth/token/
p326
aVhttps://docs.docker.com/machine/get-started/
p327
aVhttps://docs.docker.com/engine/extend/plugins_authorization/
p328
asS'shareware'
p329
(lp330
sS'cpu'
p331
(lp332
Vhttps://docs.docker.com/engine/admin/runmetrics/
p333
aVhttps://docs.docker.com/engine/reference/run/
p334
aVhttps://hub.docker.com/r/kaixhin/theano/
p335
aVhttps://docs.docker.com/
p336
aVhttps://docs.docker.com/engine/reference/commandline/ps/
p337
aVhttps://www.docker.com/
p338
aVhttps://blog.docker.com/2013/10/gathering-lxc-docker-containers-metrics/
p339
aVhttps://docs.docker.com/v1.10/machine/drivers/vsphere/
p340
aVhttps://docs.docker.com/engine/reference/commandline/update/
p341
aVhttps://docs.docker.com/engine/reference/commandline/stats/
p342
asS'agp card'
p343
(lp344
Vhttps://hub.docker.com/r/boot2docker/boot2docker/builds/bmwjdkejwhmyd8tgludsvjr/
p345
aVhttps://hub.docker.com/r/boot2docker/boot2docker/builds/bd496ps5kxbkos7gxyt4nwf/
p346
asssg123
(dp347
g3
I01
sg4
S'Computers'
p348
sg6
g7
((lp349
tp350
Rp351
sg11
I369112
sg12
F0.0
sg13
(dp352
S'code'
p353
(lp354
Vhttps://www.docker.com/
p355
aVhttps://www.docker.com/open-source
p356
aVhttps://docs.docker.com/
p357
aVhttps://docs.docker.com/opensource/code/
p358
aVhttps://docs.docker.com/opensource/project/set-up-dev-env/
p359
aVhttps://www.docker.com/contribute
p360
aVhttps://blog.docker.com/2015/04/start-contributing-to-docker-in-5-easy-steps/
p361
aVhttps://www.docker.com/use-cases/cicd
p362
aVhttps://docs.docker.com/engine/security/security/
p363
aVhttps://www.docker.com/docker-community
p364
asS'argument'
p365
(lp366
Vhttps://docs.docker.com/v1.5/reference/builder/
p367
aVhttps://docs.docker.com/v1.11/swarm/reference/manage/
p368
aVhttps://docs.docker.com/swarm/reference/manage/
p369
aVhttps://blog.docker.com/2016/02/compose-1-6/
p370
aVhttps://docs.docker.com/swarm/reference/list/
p371
aVhttps://docs.docker.com/
p372
aVhttps://hub.docker.com/r/jeroenpeeters/docker-ssh/
p373
aVhttps://forums.docker.com/t/trying-to-get-postgres-to-work-on-persistent-windows-mount-two-issues/12456
p374
aVhttps://hub.docker.com/r/velvia/spark-jobserver/
p375
aVhttps://docs.docker.com/swarm/reference/join/
p376
asS'char'
p377
(lp378
Vhttps://hub.docker.com/r/mbartoli/char-rnn/
p379
aVhttps://hub.docker.com/r/mbartoli/char-rnn/tags/
p380
aVhttps://hub.docker.com/r/mbartoli/char-rnn/builds/
p381
aVhttps://forums.docker.com/t/volume-mounts-in-windows-does-not-work/10693?page=5
p382
aVhttps://blog.docker.com/2016/09/build-your-first-docker-windows-server-container/
p383
aVhttps://hub.docker.com/r/jamesmarlowe/lua-resty-hmac/
p384
aVhttps://forums.docker.com/t/proxy-settings-and-password-encoding/18159
p385
aVhttps://forums.docker.com/t/oracle-11g-xe-installation-on-docker-rhel-7-image/4151
p386
aVhttps://hub.docker.com/u/mbartoli/
p387
aVhttps://hub.docker.com/r/rocker/rstudio/
p388
asS'boolean'
p389
(lp390
Vhttps://docs.docker.com/engine/reference/commandline/cli/
p391
aVhttps://docs.docker.com/v1.11/engine/reference/commandline/cli/
p392
aVhttps://hub.docker.com/r/ontouchstart/nand2tetris/builds/
p393
aVhttps://docs.docker.com/v1.7/docker/reference/commandline/cli/
p394
aVhttps://forums.docker.com/t/docker-not-initializing-after-update/11069
p395
aVhttps://docs.docker.com/engine/reference/commandline/volume_ls/
p396
aVhttps://hub.docker.com/r/shaunburdick/slack-jirabot/
p397
aVhttps://docs.docker.com/registry/storage-drivers/s3/
p398
aVhttps://hub.docker.com/
p399
aVhttps://hub.docker.com/r/chaudyg/freeboard/
p400
asS'array'
p401
(lp402
Vhttps://docs.docker.com/v1.5/reference/builder/
p403
aVhttps://docs.docker.com/engine/reference/builder/
p404
aVhttps://docs.docker.com/engine/reference/commandline/inspect/
p405
aVhttps://docs.docker.com/compose/compose-file/
p406
aVhttps://hub.docker.com/r/cjnygard/json-test-data/
p407
aVhttps://blog.docker.com/2015/04/docker-tutorial-6-dockerfile-part-1/
p408
aVhttps://docs.docker.com/engine/reference/api/docker_remote_api_v1.20/
p409
aVhttps://hub.docker.com/r/centurylink/dray/
p410
aVhttps://hub.docker.com/r/bioconductor/devel_microarray/tags/
p411
aVhttps://docs.docker.com/docker-cloud/apps/stack-yaml-reference/
p412
asS'binary'
p413
(lp414
Vhttps://docs.docker.com/engine/installation/binaries/
p415
aVhttps://docs.docker.com/v1.11/engine/installation/binaries/
p416
aVhttps://docs.docker.com/v1.5/installation/binaries/
p417
aVhttps://blog.docker.com/2015/06/experimental-binary/
p418
aVhttps://docs.docker.com/swarm/get-swarm/
p419
aVhttps://hub.docker.com/r/centurylink/golang-builder/
p420
aVhttps://www.docker.com/
p421
aVhttps://hub.docker.com/r/marcelstoer/nodemcu-build/
p422
aVhttps://hub.docker.com/u/binarycode/starred/
p423
aVhttps://blog.docker.com/2015/07/new-apt-and-yum-repos/
p424
asS'container'
p425
(lp426
Vhttps://www.docker.com/
p427
aVhttps://docs.docker.com/engine/tutorials/dockerizing/
p428
aVhttps://blog.docker.com/tag/container/
p429
aVhttps://hub.docker.com/_/mongo/
p430
aVhttps://docs.docker.com/engine/reference/commandline/inspect/
p431
aVhttps://docs.docker.com/engine/reference/commandline/attach/
p432
aVhttps://www.docker.com/what-docker
p433
aVhttps://docs.docker.com/
p434
aVhttps://blog.docker.com/2016/04/containers-and-vms-together/
p435
aVhttps://blog.docker.com/2016/04/docker-containerd-integration/
p436
asS'borland'
p437
(lp438
Vhttps://hub.docker.com/r/malice/yara/
p439
aVhttps://hub.docker.com/r/frosforever/saws/
p440
aVhttps://hub.docker.com/r/sjackman/prokka/builds/bhxep8hnlalhbq49dv4ze96/
p441
aVhttps://hub.docker.com/r/sreinhardt/nagios/builds/bicqxgx4bpkrwjzk3vmcmf/
p442
aVhttps://hub.docker.com/r/masieroi/docker-liferay/builds/bpcfvdav6hhfm6ssqyrnjpl/
p443
asS'controls'
p444
(lp445
Vhttps://www.docker.com/products/docker-datacenter
p446
aVhttps://www.docker.com/sites/default/files/DCR_UniversalControlPlane_TechBrief_070716_v1_0.pdf
p447
aVhttps://docs.docker.com/engine/security/security/
p448
aVhttps://www.blog.docker.com/2016/03/configuring-load-balancing-service-discovery-docker-universal-control-plane/
p449
aVhttps://blog.docker.com/2016/07/indiana-university-uses-docker-datacenter-for-production-ready-orchestration-4/
p450
aVhttps://blog.docker.com/2016/09/4-biggest-questions-docker-vmworld-2016/
p451
aVhttps://hub.docker.com/_/swarm/
p452
aVhttps://www.docker.com/docker-news-and-press/docker-launches-universal-control-plane-deploy-and-manage-containerized
p453
aVhttps://www.docker.com/docker-universal-control-plane-beta-access-agreement-0
p454
aVhttps://www.docker.com/docker-news-and-press/docker-datacenter-selected-leading-enterprises-deliver-application-lifecycle
p455
asS'perl'
p456
(lp457
Vhttps://hub.docker.com/_/perl/
p458
aVhttps://hub.docker.com/r/armhf/perl/
p459
aVhttps://hub.docker.com/r/centos/perl-520-centos7/
p460
aVhttps://forums.docker.com/t/perl-segmentation-fault-oracle-12c-install-docker-mac-mac-pro/18256
p461
aVhttps://hub.docker.com/r/quantumobject/docker-cacti/
p462
aVhttps://hub.docker.com/r/mj41/perl6-star/
p463
aVhttps://hub.docker.com/_/rakudo-star/
p464
aVhttps://hub.docker.com/r/ansibleshipyard/ansible-perl/
p465
aVhttps://www.docker.com/
p466
aVhttps://hub.docker.com/
p467
asS'component'
p468
(lp469
Vhttps://docs.docker.com/
p470
aVhttps://forums.docker.com/t/error-while-executing-build-command/3600
p471
aVhttps://blog.docker.com/2015/12/containerd-daemon-to-control-runc/
p472
aVhttps://success.docker.com/Datacenter/Update/Universal_Control_Plane_1.1.0
p473
aVhttps://www.docker.com/what-docker
p474
aVhttps://blog.docker.com/2016/03/docker-welcomes-aurora-project-creators/
p475
aVhttps://docs.docker.com/docker-for-mac/docker-toolbox/
p476
aVhttps://forums.docker.com/t/issue-in-docker-build-command/3502
p477
aVhttps://blog.docker.com/2015/10/docker-webinar-qa-couchbase-hub-tutum/
p478
aVhttps://blog.docker.com/2015/08/reactive-containers-kitematic-docker/
p479
asS'actionlistener'
p480
(lp481
sS'ansi'
p482
(lp483
Vhttps://hub.docker.com/u/ansi/
p484
aVhttps://hub.docker.com/r/ansi/mosquitto/
p485
aVhttps://hub.docker.com/r/hensansi/angular2/
p486
aVhttps://hub.docker.com/r/ansi/jira/
p487
aVhttps://hub.docker.com/r/ansi/jira/builds/
p488
aVhttps://hub.docker.com/r/ansi/mosquitto/tags/
p489
aVhttps://hub.docker.com/r/ansi/mosquitto/~/dockerfile/
p490
aVhttps://hub.docker.com/r/ansi/mosquitto/builds/
p491
aVhttps://hub.docker.com/r/panage/ansibrest/
p492
aVhttps://docs.docker.com/engine/admin/logging/overview/
p493
asS'cpan'
p494
(lp495
Vhttps://hub.docker.com/r/quantumobject/docker-cacti/
p496
aVhttps://hub.docker.com/r/liquidweb/base-perl/
p497
aVhttps://hub.docker.com/r/cpanse/recmap/tags/
p498
aVhttps://hub.docker.com/r/zakame/perl/~/dockerfile/
p499
aVhttps://hub.docker.com/r/liquidweb/base-perl-prod/
p500
aVhttps://hub.docker.com/r/centos/perl-520-centos7/
p501
aVhttps://hub.docker.com/r/yuuk1/perl/~/dockerfile/
p502
aVhttps://hub.docker.com/r/k0st/alpine-dvcs-ripper/~/dockerfile/
p503
aVhttps://forums.docker.com/t/perl-segmentation-fault-oracle-12c-install-docker-mac-mac-pro/18256
p504
aVhttps://hub.docker.com/r/cloudposse/perl-ubuntu-vps/~/dockerfile/
p505
asS'java'
p506
(lp507
Vhttps://hub.docker.com/r/library/java/tags/
p508
aVhttps://hub.docker.com/_/java/
p509
aVhttps://blog.docker.com/2016/09/java-development-using-docker/
p510
aVhttps://hub.docker.com/_/openjdk/
p511
aVhttps://hub.docker.com/r/airdock/oracle-jdk/
p512
aVhttps://hub.docker.com/r/develar/java/
p513
aVhttps://hub.docker.com/r/ibmcom/ibmjava/
p514
aVhttps://hub.docker.com/_/ibmjava/
p515
aVhttps://hub.docker.com/r/unicon/shibboleth-idp/
p516
aVhttps://www.docker.com/
p517
asS'class'
p518
(lp519
Vhttps://training.docker.com/classes
p520
aVhttps://training.docker.com/class/docker-training/introduction-to-docker---19/new-york-ny-microtek/2016-07-19
p521
aVhttps://www.docker.com/
p522
aVhttps://forums.docker.com/t/java-classnotfoundexception/11917
p523
aVhttps://training.docker.com/instructor-led-training/
p524
aVhttps://training.docker.com/class/docker-training/advanced-docker-operations---19/alterway---docker-training-2d/2016-09-21
p525
aVhttps://training.docker.com/class/wwwhoplasoftwarecom
p526
aVhttps://training.docker.com/class/docker-training/introduction-to-docker---19/contino---london/2016-10-19
p527
aVhttps://training.docker.com/class/docker-training/introduction-to-docker---19/spain/2016-09-05
p528
aVhttps://training.docker.com/class/docker-training/advanced-docker-operations---19/xebia-office-amsterdam/2016-11-17
p529
asS'compiler'
p530
(lp531
Vhttps://hub.docker.com/r/rsmmr/clang/
p532
aVhttps://hub.docker.com/_/gcc/
p533
aVhttps://hub.docker.com/r/larskanis/rake-compiler-dock/
p534
aVhttps://hub.docker.com/r/droboports/go-compiler/
p535
aVhttps://forums.docker.com/t/compiling-c-code-in-a-container/8606
p536
aVhttps://hub.docker.com/r/thrift/thrift-compiler-test/
p537
aVhttps://hub.docker.com/r/tessel/t2-compiler/
p538
aVhttps://hub.docker.com/r/sdt4docker/raspberry-pi-cross-compiler/
p539
aVhttps://hub.docker.com/r/ukaiser/docker-xc8/~/dockerfile/
p540
aVhttps://www.docker.com/
p541
asS'alloc'
p542
(lp543
Vhttps://hub.docker.com/r/tarantool/tarantool/
p544
aVhttps://hub.docker.com/r/ethereum/client-go/
p545
aVhttps://hub.docker.com/r/uber/go-torch/
p546
aVhttps://forums.docker.com/t/increasing-memory-in-docker-container-memory/1907
p547
aVhttps://hub.docker.com/r/yungsang/flannel/
p548
aVhttps://hub.docker.com/r/ryshe/terraria/
p549
aVhttps://hub.docker.com/r/rocker/r-devel-san/~/dockerfile/
p550
aVhttps://forums.docker.com/t/beta15-crashes-failed-to-set-posix-spawn-file-actions-edit-seems-resolved-in-rc2-beta16/15269
p551
aVhttps://forums.docker.com/t/docker-for-mac-1-11-2-beta15-crashes-with-many-i-o-operations/15429
p552
aVhttps://forums.docker.com/t/my-docker-crash-and-exit-suddenly/15318
p553
asS'compile'
p554
(lp555
Vhttps://hub.docker.com/_/golang/
p556
aVhttps://hub.docker.com/r/victorhcm/opencv/
p557
aVhttps://hub.docker.com/_/gcc/
p558
aVhttps://hub.docker.com/r/civisanalytics/go-makefile/
p559
aVhttps://hub.docker.com/_/busybox/
p560
aVhttps://forums.docker.com/t/compile-and-copy-to-image-or-copy-source-to-container-and-compile-on-build/17011
p561
aVhttps://hub.docker.com/r/tessel/t2-compiler/
p562
aVhttps://docs.docker.com/
p563
aVhttps://blog.docker.com/2016/09/docker-golang/
p564
aVhttps://hub.docker.com/r/sdt4docker/raspberry-pi-cross-compiler/
p565
asS'alias'
p566
(lp567
Vhttps://docs.docker.com/engine/userguide/networking/work-with-networks/
p568
aVhttps://hub.docker.com/r/brokendish/ubuntu/
p569
aVhttps://blog.docker.com/tag/bash/
p570
aVhttps://docs.docker.com/compose/compose-file/
p571
aVhttps://hub.docker.com/r/wernight/docker-compose/
p572
aVhttps://docs.docker.com/
p573
aVhttps://forums.docker.com/t/newui-link-aliases-no-longer-working/19573
p574
aVhttps://blog.docker.com/2013/10/docker-0-6-5-links-container-naming-advanced-port-redirects-host-integration/
p575
aVhttps://www.docker.com/products/docker-registry
p576
aVhttps://docs.docker.com/engine/userguide/networking/default_network/dockerlinks/
p577
asS'applet'
p578
(lp579
Vhttps://forums.docker.com/t/ssl-vpn-load-test-emulator-feasible/1693
p580
aVhttps://hub.docker.com/r/hpsoftware/sitescope/
p581
aVhttps://forums.docker.com/t/volume-mounts-in-windows-does-not-work/10693?page=3
p582
aVhttps://hub.docker.com/r/dapor/docker_sheepit_renderfarm/~/dockerfile/
p583
aVhttps://hub.docker.com/r/kripp/docker-tomcat7/builds/bhpkwkje5wjqiqrbn26ug5r/
p584
aVhttps://hub.docker.com/r/kripp/docker-tomcat7/builds/bvwvuxdjhlopywhfgfpfctf/
p585
aVhttps://hub.docker.com/r/maccam912/docker-ubuntu-desktop/builds/br3ffdzhysnydka4s8cxrbj/
p586
aVhttps://hub.docker.com/r/jare/spacemacs/builds/b9g8bp5qycvghf5mco92c8y/
p587
aVhttps://hub.docker.com/r/magnetikonline/html5validator/builds/bta7yrcpa6hdclww8j9dmkg/
p588
aVhttps://hub.docker.com/r/jare/spacemacs/builds/bfglhbjsejc94tbsgwyggyk/
p589
asS'api'
p590
(lp591
Vhttps://docs.docker.com/engine/reference/api/docker_remote_api_v1.24/
p592
aVhttps://docs.docker.com/engine/reference/api/docker_remote_api_v1.22/
p593
aVhttps://docs.docker.com/apidocs/docker-cloud/
p594
aVhttps://hub.docker.com/r/checkoutcrypto/crypto-api/
p595
aVhttps://docs.docker.com/v1.8/reference/api/docker_remote_api_v1.20/
p596
aVhttps://docs.docker.com/registry/spec/api/
p597
aVhttps://docs.docker.com/v1.4/reference/api/docker_remote_api_v1.12/
p598
aVhttps://docs.docker.com/engine/reference/api/remote_api_client_libraries/
p599
aVhttps://docs.docker.com/registry/
p600
aVhttps://blog.docker.com/tag/api/
p601
asS'algorithms'
p602
(lp603
Vhttps://hub.docker.com/r/hmage/cpuminer-opt/
p604
aVhttps://hub.docker.com/r/kbastani/neo4j-graph-analytics/
p605
aVhttps://hub.docker.com/r/benhamner/machine_learning.jl/
p606
aVhttps://docs.docker.com/engine/swarm/raft/
p607
aVhttps://blog.docker.com/2016/04/biogen-docker-swarm/
p608
aVhttps://hub.docker.com/r/bcbio/bcbio/
p609
aVhttps://hub.docker.com/_/gazebo/
p610
aVhttps://hub.docker.com/r/fedict/eid-test-ca/
p611
aVhttps://hub.docker.com/r/jrottenberg/dnstwist/
p612
aVhttps://hub.docker.com/r/numenta/nupic/
p613
asssS'Sports'
p614
(dp615
g3
I00
sg4
g120
sg6
g7
((lp616
S'Soccer'
p617
ag1
atp618
Rp619
sg11
I10782
sg12
F0.0
sg13
(dp620
S'ball team'
p621
(lp622
Vhttps://blog.docker.com/curated/
p623
aVhttp://goto.docker.com/rs/929-FJL-178/images/Docker%20Weekly_%20September%2024th%202014.pdf
p624
aVhttp://goto.docker.com/rs/929-FJL-178/images/The%20Docker%20and%20Container%20Ecosystem%20book.pdf
p625
aVhttps://forums.docker.com/t/symlinks-on-shared-volumes-not-supported/9288
p626
aVhttps://forums.docker.com/t/build-hangs-on-macos-sierra-beta-2/17581/16
p627
aVhttps://blog.docker.com/2014/02/docker-0-8-quality-new-builder-features-btrfs-storage-osx-support/
p628
asS'avg nba'
p629
(lp630
sS'wnba'
p631
(lp632
sS'ncaa'
p633
(lp634
sS'laker'
p635
(lp636
sS'teams'
p637
(lp638
Vhttps://www.docker.com/sites/default/files/Docker%20Transition%20to%20DevOps.pdf
p639
aVhttps://docs.docker.com/docker-hub/orgs/
p640
aVhttps://blog.docker.com/2016/02/containers-as-a-service-caas/
p641
aVhttps://blog.docker.com/2016/09/4-biggest-questions-docker-vmworld-2016/
p642
aVhttps://blog.docker.com/2015/10/docker-acquires-tutum/
p643
aVhttps://www.docker.com/company/management
p644
aVhttps://docs.docker.com/ucp/user-management/authentication-and-authorization/
p645
aVhttp://www.docker.com/enterprise
p646
aVhttps://blog.docker.com/2016/03/role-based-access-control-docker-ucp-tutorial/
p647
aVhttps://www.docker.com/
p648
asS'fans football'
p649
(lp650
Vhttps://www.docker.com/sites/default/files/2015-02-28%20Bleacher%20Report%201.2%20%281%29.pdf
p651
aVhttps://www.docker.com/customers/bleacher-report-innovates-faster-scale
p652
asS'pacers'
p653
(lp654
sS'championship team'
p655
(lp656
Vhttps://hub.docker.com/r/mchelen/dcaf_case_management/
p657
aVhttps://hub.docker.com/r/goesta/xmage/builds/bzc76pfyeagkumexfvbqwva/
p658
asS'avg league'
p659
(lp660
sS'blazers game'
p661
(lp662
sS'club league'
p663
(lp664
sS'ball league'
p665
(lp666
sS'nba'
p667
(lp668
Vhttps://hub.docker.com/r/tnanba/rpmbuild/
p669
aVhttps://hub.docker.com/r/tnanba/rpmbuild/tags/
p670
aVhttps://hub.docker.com/r/dtenenba/bioconductor.org/builds/
p671
aVhttps://hub.docker.com/r/dtenenba/jupyter/builds/
p672
aVhttps://hub.docker.com/r/dtenenba/bioconductor.org/tags/
p673
aVhttps://hub.docker.com/r/dtenenba/jupyter/~/dockerfile/
p674
aVhttps://hub.docker.com/r/dtenenba/jupyter/
p675
aVhttps://hub.docker.com/r/dtenenba/bioconductor.org/
p676
aVhttps://hub.docker.com/r/dtenenba/bioconductor.org/~/dockerfile/
p677
asS'soccer'
p678
(lp679
Vhttp://www.docker.com/
p680
aVhttps://blog.docker.com/2016/08/introducing-dockercast-the-docker-podcast/
p681
aVhttps://blog.docker.com/2016/07/dockercon-video-microsoft-cisco-ibm/
p682
aVhttps://www.docker.com/careers
p683
aVhttps://blog.docker.com/2016/02/announcing-docker-birthday-3/
p684
aVhttps://blog.docker.com/2016/06/dockercon-2106-livestream/
p685
aVhttps://blog.docker.com/2016/07/dockercon-2016-day-1-videos-docker/
p686
aVhttps://blog.docker.com/2016/06/dockercon-video-mobys-cool-hacks/
p687
aVhttps://blog.docker.com/2016/09/5-minutes-docker-captains-2/
p688
aVhttps://www.docker.com/what-docker
p689
asS'game league'
p690
(lp691
Vhttp://www.docker.com/
p692
aVhttps://hub.docker.com/r/steamcache/generic/
p693
aVhttps://hub.docker.com/r/gravebot/gravebot/
p694
asS'ball referee'
p695
(lp696
sssg122
(dp697
g3
I01
sg4
g348
sg6
g7
((lp698
tp699
Rp700
sg11
I77
sg12
F0.0
sg13
(dp701
S'bios controller ide'
p702
(lp703
Vhttps://hub.docker.com/r/openstf/stf/
p704
aVhttps://hub.docker.com/r/boot2docker/boot2docker/builds/bmwjdkejwhmyd8tgludsvjr/
p705
asS'cables drive floppy'
p706
(lp707
sS'motherboard'
p708
(lp709
Vhttps://blog.docker.com/2015/07/thank-you-sysadmins/
p710
aVhttps://forums.docker.com/t/docker-run-cant-connect-to-https-index-docker-io/10373?page=2
p711
aVhttps://hub.docker.com/r/openstf/stf/
p712
aVhttps://forums.docker.com/t/docker-run-cant-connect-to-https-index-docker-io/10373/17
p713
asS'board overclocking'
p714
(lp715
sS'bios'
p716
(lp717
Vhttps://hub.docker.com/u/bios/
p718
aVhttps://hub.docker.com/r/bios/docker-owncloud/
p719
aVhttps://hub.docker.com/r/jdelaros1/openmanage/
p720
aVhttps://docs.docker.com/docker-for-windows/troubleshoot/
p721
aVhttps://hub.docker.com/r/bios/docker-yourls/
p722
aVhttps://hub.docker.com/r/bios/docker-owncloud/builds/
p723
aVhttps://forums.docker.com/t/installing-docker-on-windows-10-home/11722
p724
aVhttps://www.docker.com/
p725
aVhttps://docs.docker.com/engine/admin/
p726
aVhttps://forums.docker.com/t/unable-to-start-docker-machine-with-virtualbox-virtuallzation-enabled-already/17283
p727
asS'fsb overclocking'
p728
(lp729
sS'board fsb'
p730
(lp731
sssS'Health'
p732
(dp733
g3
I00
sg4
g120
sg6
g7
((lp734
g60
aS'Fitness'
p735
atp736
Rp737
sg11
I5107
sg12
F0.0
sg13
(dp738
S'cancer'
p739
(lp740
Vhttps://www.docker.com/customers/docker-helps-varian-medical-systems-battle-cancer
p741
aVhttps://hub.docker.com/r/rgardler/fah/
p742
aVhttps://hub.docker.com/r/pancancer/pancancer_launcher/~/dockerfile/
p743
aVhttps://hub.docker.com/r/trausch/tutorial-delly/
p744
aVhttps://hub.docker.com/r/gregway/hgsc_subtypes/
p745
aVhttps://hub.docker.com/r/pancancer/pcawg-delly-workflow/
p746
aVhttps://hub.docker.com/r/ccbc/
p747
aVhttps://blog.docker.com/2016/04/cicd-with-docker-cloud/
p748
aVhttps://docs.docker.com/engine/understanding-docker/
p749
aVhttp://goto.docker.com/Docker-Weekly-09232015.html
p750
asS'squats'
p751
(lp752
sS'carb carbs'
p753
(lp754
Vhttps://hub.docker.com/r/nightscout/cgm-remote-monitor-development/
p755
asS'walkers'
p756
(lp757
sS'medical patient'
p758
(lp759
Vhttps://www.docker.com/customers/docker-helps-varian-medical-systems-battle-cancer
p760
asS'hospital patients'
p761
(lp762
Vhttps://hub.docker.com/r/dbhi/biorepo-portal/
p763
aVhttps://hub.docker.com/r/openhmis/openmrs-docker/
p764
asS'aids'
p765
(lp766
Vhttps://www.docker.com/docker-news-and-press/docker-hub-accelerates-application-delivery-600-percent
p767
aVhttps://forums.docker.com/faq
p768
aVhttps://hub.docker.com/r/hectcastro/basho-otp/
p769
aVhttps://hub.docker.com/r/oisinmulvihill/docker-zabbix/
p770
aVhttps://blog.docker.com/2015/09/docker-agenda-september/
p771
asS'hospital medical'
p772
(lp773
Vhttps://hub.docker.com/r/openhmis/openmrs-docker/
p774
asS'doctor health'
p775
(lp776
Vhttps://www.docker.com/
p777
aVhttps://hub.docker.com/
p778
asS'aerobic'
p779
(lp780
sS'fat muscle'
p781
(lp782
sS'aerobics'
p783
(lp784
sS'treadmill'
p785
(lp786
Vhttps://hub.docker.com/r/nate/treadmill/
p787
aVhttps://hub.docker.com/u/nate/
p788
asS'acupuncture'
p789
(lp790
sS'nurse'
p791
(lp792
Vhttps://hub.docker.com/r/coopernurse/docker-nim/
p793
aVhttps://hub.docker.com/r/coopernurse/docker-nim/~/dockerfile/
p794
asS'hiv'
p795
(lp796
Vhttps://hub.docker.com/r/erwinchang/build-hiv300/
p797
asS'cardiology'
p798
(lp799
sS'cholesterol'
p800
(lp801
sS'calories fat'
p802
(lp803
sS'diet'
p804
(lp805
Vhttps://hub.docker.com/r/kayvan/dietfs/tags/
p806
aVhttps://hub.docker.com/r/greglearns/dietfs/tags/
p807
aVhttp://goto.docker.com/rs/929-FJL-178/images/Docker%20Weekly_%20May%2014th%202014.pdf
p808
aVhttp://goto.docker.com/rs/929-FJL-178/images/Docker%20Weekly_%20March%2012th%2C%202015.pdf
p809
aVhttps://blog.docker.com/2015/09/docker-global-hack-day-3-local-edition-winners/
p810
aVhttps://blog.docker.com/2015/09/docker-global-hack-day-3-winners/
p811
aVhttps://blog.docker.com/2015/09/docker-global-hack-day-3-starts-today/
p812
aVhttp://goto.docker.com/Docker-Weekly-07292015.html
p813
asS'doctor medical'
p814
(lp815
sS'patients treatment'
p816
(lp817
sS'health nutritional'
p818
(lp819
sS'diabetes'
p820
(lp821
Vhttps://hub.docker.com/r/loudnate/rpi-openaps/
p822
aVhttps://hub.docker.com/r/dhermanns/rpi-nightscout/
p823
aVhttps://hub.docker.com/r/kaggle/python/builds/bvyehudxeihi2zfwyqpccun/
p824
aVhttps://hub.docker.com/r/kaggle/python/builds/bjoaiyn2wt5xwyjxwwhztlv/
p825
aVhttps://hub.docker.com/r/kaggle/python/builds/bgh7bebcbuca3ydbuprxszr/
p826
asS'eating fat'
p827
(lp828
sS'medical treatment'
p829
(lp830
sS'insulin'
p831
(lp832
Vhttps://hub.docker.com/r/nightscout/cgm-remote-monitor-development/
p833
asS'fitness'
p834
(lp835
Vhttps://hub.docker.com/r/airdock/oracle-jdk/
p836
aVhttps://hub.docker.com/r/francescou/docker-compose-ui/
p837
aVhttps://hub.docker.com/r/hypriot/rpi-redis/
p838
aVhttps://hub.docker.com/r/martialnist/docker-f4de/
p839
aVhttps://hub.docker.com/r/garland/butterfly/
p840
aVhttps://hub.docker.com/r/lifegadget/docker-php/
p841
aVhttps://hub.docker.com/r/jenkinsci/jnlp-slave/~/dockerfile/
p842
aVhttps://blog.docker.com/2015/04/docker-selected-as-gartner-cool-vendor-in-devops/
p843
aVhttps://hub.docker.com/r/hypriot/rpi-python/
p844
aVhttps://hub.docker.com/r/emccode/ecsobjectsw/
p845
asS'health medicine'
p846
(lp847
sssg735
(dp848
g3
I01
sg4
g62
sg6
g7
((lp849
tp850
Rp851
sg11
I4451
sg12
F0.0
sg13
(dp852
S'calories protein'
p853
(lp854
sS'walking'
p855
(lp856
Vhttps://hub.docker.com/r/noumansaleem/walker.js/
p857
aVhttps://hub.docker.com/r/thewalkingtoast/phoenix-api/
p858
aVhttps://forums.docker.com/t/the-best-way-to-share-a-file-in-a-docker-swarm/23706
p859
aVhttps://blog.docker.com/2016/03/swarmweek-swarm-maintainers/
p860
aVhttps://hub.docker.com/r/centurylinklabs/dockerfile-from-image/
p861
aVhttps://blog.docker.com/2015/12/ian-murdock/
p862
aVhttps://blog.docker.com/2015/04/start-contributing-to-docker-in-5-easy-steps/
p863
aVhttps://hub.docker.com/r/thewalkingtoast/phoenix-api/tags/
p864
aVhttps://blog.docker.com/2016/01/recap-docker-scale-14x/
p865
aVhttps://blog.docker.com/2015/07/sysadmin-day-sysadmin-war-stories/
p866
asS'exercise protein'
p867
(lp868
sS'aerobic'
p869
(lp870
sS'workout'
p871
(lp872
Vhttps://hub.docker.com/r/y0ssar1an/slack-workout/
p873
aVhttps://hub.docker.com/r/y0ssar1an/slack-workout/tags/
p874
aVhttps://hub.docker.com/u/y0ssar1an/
p875
aVhttp://goto.docker.com/rs/929-FJL-178/images/Docker%20Weekly_%20January%2029th%202014.pdf
p876
aVhttps://blog.docker.com/2014/06/docker-governance-advisory-board-next-steps/
p877
asS'challenge walk'
p878
(lp879
Vhttps://blog.docker.com/2016/03/dockercon-2016-first-speakers-announced/
p880
aVhttps://blog.docker.com/2016/06/dockercon-hands-on-labs/
p881
aVhttps://blog.docker.com/tag/docker/
p882
aVhttps://blog.docker.com/2015/11/dockercon-eu-2015-day-1/
p883
aVhttps://blog.docker.com/2015/12/docker-december/
p884
aVhttps://blog.docker.com/2016/03/docker-agenda-march/
p885
aVhttps://blog.docker.com/2014/09/report-burrito-quest-i/
p886
aVhttps://blog.docker.com/2015/07/your-docker-agenda-in-july/
p887
asS'eating protein'
p888
(lp889
sS'fat'
p890
(lp891
Vhttps://docs.docker.com/registry/spec/manifest-v2-2/
p892
aVhttps://hub.docker.com/r/jolokia/docker-fatjar-demo/tags/
p893
aVhttps://hub.docker.com/r/fvigotti/env-fatubuntu/tags/
p894
aVhttps://hub.docker.com/r/cloudssky/opencms-stack-aio/tags/
p895
aVhttps://hub.docker.com/r/steveyken/fat-free-crm/
p896
aVhttps://blog.docker.com/2015/08/ui-at-docker/
p897
aVhttps://hub.docker.com/r/fvigotti/env-fatubuntu-bashsupervisor/~/dockerfile/
p898
aVhttps://hub.docker.com/r/fvigotti/env-fatubuntu-supervisord/tags/
p899
aVhttps://hub.docker.com/r/fvigotti/env-fatubuntu-supervisord/builds/
p900
aVhttps://hub.docker.com/r/fvigotti/fatubuntu/builds/
p901
asS'dairy milk'
p902
(lp903
sS'calories weight'
p904
(lp905
sS'bodybuilding protein'
p906
(lp907
sS'fitness'
p908
(lp909
Vhttps://hub.docker.com/r/hypriot/rpi-redis/
p910
aVhttps://hub.docker.com/r/martialnist/docker-f4de/
p911
aVhttps://hub.docker.com/r/garland/butterfly/
p912
aVhttps://hub.docker.com/r/ivre/db/
p913
aVhttps://hub.docker.com/r/sshcheung/rpi-openhab/
p914
aVhttps://hub.docker.com/r/jenkinsci/jnlp-slave/~/dockerfile/
p915
aVhttps://blog.docker.com/2015/04/docker-selected-as-gartner-cool-vendor-in-devops/
p916
aVhttps://hub.docker.com/r/pointslope/clojure/
p917
aVhttps://hub.docker.com/r/lifegadget/docker-nginx/
p918
aVhttps://hub.docker.com/r/emccode/ecsobjectsw/
p919
asS'acid diets'
p920
(lp921
sS'eating weight'
p922
(lp923
sS'exercise weight'
p924
(lp925
Vhttps://hub.docker.com/r/kaggle/python/builds/bvyehudxeihi2zfwyqpccun/
p926
aVhttps://hub.docker.com/r/kaggle/python/builds/bjoaiyn2wt5xwyjxwwhztlv/
p927
aVhttps://hub.docker.com/r/kaggle/python/builds/bgh7bebcbuca3ydbuprxszr/
p928
asssg617
(dp929
g3
I01
sg4
g5
sg6
g7
((lp930
tp931
Rp932
sg11
I43
sg12
F0.0
sg13
(dp933
S'fifa'
p934
(lp935
Vhttps://blog.docker.com/2015/11/dockercon-eu-2015-after-party/
p936
asS'liverpool'
p937
(lp938
Vhttps://www.docker.com/community/meetup-groups
p939
aVhttps://hub.docker.com/r/wpmr/sear/
p940
aVhttps://hub.docker.com/u/dynamicdevices/
p941
aVhttps://hub.docker.com/r/wpmr/biodock/~/dockerfile/
p942
asS'mls'
p943
(lp944
Vhttps://hub.docker.com/r/metricsgrimoire/sortinghat/
p945
aVhttps://forums.docker.com/t/docker-on-windows-its-overkill-to-require-msys-git/1119
p946
aVhttps://docs.docker.com/engine/reference/api/docker_remote_api_v1.22/
p947
aVhttps://docs.docker.com/v1.8/reference/api/docker_remote_api_v1.20/
p948
aVhttps://forums.docker.com/t/why-does-docker-prompt-permission-denied-when-backing-up-the-data-volume/1484
p949
aVhttps://docs.docker.com/engine/reference/run/
p950
aVhttps://forums.docker.com/t/how-to-install-latest-docker-v1-9-x-on-amazon-linux/4689
p951
aVhttps://docs.docker.com/v1.5/reference/api/docker_remote_api_v1.17/
p952
aVhttps://docs.docker.com/engine/reference/api/docker_remote_api_v1.23/
p953
aVhttps://docs.docker.com/engine/reference/api/docker_remote_api_v1.18/
p954
asS'lazio'
p955
(lp956
sS'bundesliga'
p957
(lp958
sS'premiership'
p959
(lp960
sS'leeds'
p961
(lp962
Vhttps://hub.docker.com/u/gleeds/
p963
aVhttps://hub.docker.com/r/alleeds/btsync-server/
p964
aVhttps://hub.docker.com/r/nlpub/maltparser/~/dockerfile/
p965
aVhttps://hub.docker.com/r/richardhull/ods-search-appliance/
p966
aVhttps://www.docker.com/community/meetup-groups
p967
aVhttp://goto.docker.com/rs/929-FJL-178/images/Docker%20Weekly_%20October%202nd%202014.pdf
p968
aVhttp://goto.docker.com/rs/929-FJL-178/images/Docker%20Weekly_%20October%208th%2C%202014.pdf
p969
aVhttps://hub.docker.com/r/alleeds/btsync-server/tags/
p970
asS'juventus'
p971
(lp972
sS'bayern'
p973
(lp974
sS'uefa'
p975
(lp976
sS'hooliganism'
p977
(lp978
sssS'Root'
p979
(dp980
g3
I00
sg4
Nsg6
g7
((lp981
g118
ag732
ag614
atp982
Rp983
sg11
I0
sg12
F1.0
sg13
(dp984
ss.