(dp0
S'Basketball'
p1
(dp2
S'is_leaf'
p3
I01
sS'parent'
p4
S'Sports'
p5
sS'sub_categories'
p6
c__builtin__
set
p7
((lp8
tp9
Rp10
sS'coverage'
p11
I131
sS'specificity'
p12
F0.0
sS'probes'
p13
(dp14
S'shaq'
p15
(lp16
Vhttps://www.premierleague.com/news/83709#!
p17
aVhttps://www.premierleague.com/players/4823/Matthew-Etherington/overview
p18
aVhttps://www.premierleague.com/news/58908#!
p19
aVhttps://www.premierleague.com/news/119014
p20
aVhttps://www.premierleague.com/news/68361#!
p21
aVhttps://www.premierleague.com/news/103656#!
p22
aVhttps://www.premierleague.com/news/102028
p23
aVhttps://www.premierleague.com/news/61590#!
p24
aVhttps://www.premierleague.com/news/46367
p25
aVhttps://www.premierleague.com/news/78690#!
p26
asS'laettner'
p27
(lp28
sS'knicks'
p29
(lp30
sS'wnba'
p31
(lp32
sS'laker'
p33
(lp34
Vhttp://www.premierleague.com/en-gb/fans/faqs/when-does-2013-14-season-start/
p35
asS'blazers'
p36
(lp37
Vhttps://fantasy.premierleague.com/a/team/2853145
p38
aVhttps://www.premierleague.com/news/112803#!
p39
aVhttps://www.premierleague.com/news/112803
p40
aVhttp://orig-www.premierleague.com/en-gb/news/news/2015-16/dec/031215-digital-review-around-the-clubs-on-social-media-crystal-palace.html
p41
aVhttp://www.premierleague.com/page/Podcast
p42
asS'sabonis'
p43
(lp44
sS'pacers'
p45
(lp46
Vhttp://www.premierleague.com/content/premierleague/en-gb/matchday/matches/2013-2014/epl.match-report.html/swansea-vs-liverpool
p47
asS'shaquille'
p48
(lp49
Vhttps://www.premierleague.com/news/84136
p50
aVhttps://www.premierleague.com/news/60426?_escaped_fragment_=
p51
aVhttp://origin-www.premierleague.com/staticFiles/13/79/0,,12306~162067,00.pdf
p52
aVhttps://www.premierleague.com/news/69430
p53
aVhttp://origin-www.premierleague.com/page/Headlines/0,,12306~2142220,00.html
p54
aVhttp://orig-www.premierleague.com/en-gb/news/news/2015-16/aug/250815-barclays-under-21-premier-league-review.html
p55
aVhttp://mobile.premierleague.com/page/Magazinedettail/0,,12306~2445993,00.html
p56
aVhttp://orig-www.premierleague.com/en-gb/news/news/2015-16/feb/180216-bu21pl-review-chelsea-5-norwich-0.html
p57
aVhttp://orig-www.premierleague.com/en-gb/news/news/2015-16/jun/100615-premier-league-clubs-submit-retained-and-released-lists.html
p58
aVhttp://orig-www.premierleague.com/en-gb/news/news/2015-16/sep/290915-bu21pl-review-cameron-brannagan-earns-first-liverpool-win.html
p59
asS'kobe'
p60
(lp61
Vhttp://www.premierleague.com/page/portsmouth
p62
aVhttp://orig-www.premierleague.com/en-gb/clubs/managers/profile.overview.html/michael-laudrup
p63
asS'nba'
p64
(lp65
Vhttp://www.premierleague.com/en-gb/matchday/matches/2014-2015/epl.html/liverpool-vs-spurs
p66
aVhttps://www.premierleague.com/en-gb/players/profile.overview.html/brad-friedel
p67
aVhttps://www.premierleague.com/en-gb/matchday/league-table.html
p68
aVhttps://www.premierleague.com/page/Statistics
p69
aVhttps://users.premierleague.com/
p70
aVhttps://fantasy.premierleague.com/player-list/
p71
aVhttps://fantasy.premierleague.com/?t=1
p72
aVhttp://www.premierleague.com/content/premierleague/en-gb/news/podcasts.html
p73
aVhttp://mobile.premierleague.com/page/Headlines/0,,12306~1989429,00.html
p74
asS'rebounds'
p75
(lp76
Vhttps://fantasy.premierleague.com/help/
p77
aVhttps://www.premierleague.com/news/66377#!
p78
aVhttp://origin-www.premierleague.com/page/Headlines/0,,12306~2465114,00.html
p79
aVhttps://www.premierleague.com/news/66377
p80
aVhttps://www.premierleague.com/news/66377?_escaped_fragment_=#!
p81
asS'dunks'
p82
(lp83
Vhttps://fantasy.premierleague.com/a/team/59789
p84
asssS'Diseases'
p85
(dp86
g3
I01
sg4
S'Health'
p87
sg6
g7
((lp88
tp89
Rp90
sg11
I6392
sg12
F0.0
sg13
(dp91
S'radiation treatment'
p92
(lp93
sS'aspirin cardiologist'
p94
(lp95
sS'cancer'
p96
(lp97
Vhttps://www.premierleague.com/news/60823#!
p98
aVhttp://origin-www.premierleague.com/page/Headlines/0,,12306~2317442,00.html
p99
aVhttp://mobile.premierleague.com/staticFiles/16/94/0,,12306~103446,00.pdf
p100
aVhttp://orig-www.premierleague.com/en-gb/news/news/2016-17/jun/210616-reading-academy-manager-eamonn-dolan-dies.html
p101
aVhttps://www.premierleague.com/news/111364
p102
aVhttps://www.premierleague.com/gallery/101825
p103
aVhttp://origin-www.premierleague.com/page/Magazinedettail/0,,12306~1374863,00.html
p104
aVhttps://www.premierleague.com/news/123631#!
p105
aVhttp://origin-www.premierleague.com/page/Health/0,,12306,00.html
p106
aVhttp://origin-www.premierleague.com/page/Headlines/0,,12306~2323686,00.html
p107
asS'hiv'
p108
(lp109
Vhttp://origin-www.premierleague.com/page/Headlines/0,,12306~2318455,00.html
p110
aVhttp://origin-www.premierleague.com/page/NewsArchive/0,,12306,255,00.html
p111
aVhttp://mobile.premierleague.com/staticFiles/1a/63/0,,12306~90906,00.pdf
p112
aVhttp://mobile.premierleague.com/page/Headlines/0,,12306~1988805,00.html
p113
aVhttp://mobile.premierleague.com/page/Headlines/0,,12306~1417061,00.html
p114
aVhttp://orig-www.premierleague.com/en-gb/news/news/2013-14/oct/coaches-praise-work-of-premier-league-premier-skills-programme.html
p115
asS'cardiology'
p116
(lp117
sS'dental'
p118
(lp119
Vhttps://fantasy.premierleague.com/?fail
p120
asS'cholesterol doctor'
p121
(lp122
sS'blood insulin'
p123
(lp124
sS'cholesterol lipitor'
p125
(lp126
sS'heart surgery'
p127
(lp128
Vhttp://origin-www.premierleague.com/page/newcastle-united
p129
aVhttps://www.premierleague.com/history/2008-09
p130
aVhttp://mobile.premierleague.com/page/Headlines/0,,12306~2523641,00.html
p131
aVhttp://orig-www.premierleague.com/en-gb/news/features/on-this-day-9-february.html
p132
aVhttp://origin-www.premierleague.com/page/Headlines/0,,12306~2514980,00.html
p133
aVhttp://origin-www.premierleague.com/page/Headlines/0,,12306~2344247,00.html
p134
aVhttp://origin-www.premierleague.com/page/Headlines/0,,12306~2344618,00.html
p135
aVhttp://origin-www.premierleague.com/page/Headlines/0,,12306~2176380,00.html
p136
aVhttp://origin-www.premierleague.com/page/MatchReports/0,,12306~58269,00.html
p137
aVhttp://origin-www.premierleague.com/page/Headlines/0,,12306~2184723,00.html
p138
asS'aspirin cholesterol'
p139
(lp140
sS'aids'
p141
(lp142
Vhttp://origin-www.premierleague.com/page/Headlines/0,,12306~2318455,00.html
p143
aVhttps://www.premierleague.com/youth/elite-performance
p144
aVhttps://www.premierleague.com/news/60479#!
p145
aVhttps://www.premierleague.com/news/58934#!
p146
aVhttp://origin-www.premierleague.com/page/NewsArchive/0,,12306,255,00.html
p147
aVhttp://mobile.premierleague.com/page/Headlines/0,,12306~1988805,00.html
p148
aVhttp://orig-www.premierleague.com/en-gb/news/news/2014-15/nov/211114-vurnon-anita-and-emmanuel-riviere-pledge-support-to-newcastle-family-football-project.html
p149
aVhttp://mobile.premierleague.com/page/Magazinedettail/0,,12306~1538885,00.html
p150
aVhttp://orig-www.premierleague.com/en-gb/news/news/2014-15/may/310515-news-in-brief.html
p151
aVhttp://orig-www.premierleague.com/en-gb/communities/2014-15/man-utd-legend-paul-scholes-visits-facilities-fund-pitches-in-salford.html
p152
asS'blood heart'
p153
(lp154
Vhttp://mobile.premierleague.com/page/Magazinedettail/0,,12306~2145528,00.html
p155
aVhttp://origin-www.premierleague.com/page/Headlines/0,,12306~2347706,00.html
p156
aVhttp://origin-www.premierleague.com/page/Headlines/0,,12306~2228301,00.html
p157
aVhttp://origin-www.premierleague.com/page/Headlines/0,,12306~2317396,00.html
p158
aVhttp://orig-www.premierleague.com/en-gb/matchday/matches/2012-2013/epl.tv-radio.html/swansea-vs-man-city
p159
asS'diabetes'
p160
(lp161
Vhttp://mobile.premierleague.com/staticFiles/16/94/0,,12306~103446,00.pdf
p162
aVhttp://mobile.premierleague.com/page/Magazinedettail/0,,12306~2367991,00.html
p163
aVhttp://mobile.premierleague.com/staticFiles/ec/65/0,,12306~91628,00.pdf
p164
aVhttp://origin-www.premierleague.com/page/Headlines/0,,12306~2253558,00.html
p165
aVhttp://orig-www.premierleague.com/en-gb/news/news/2015-16/dec/091215-newcastle-united-daryl-janmaat-newcastle-united-foundation.html
p166
asssS'Computers'
p167
(dp168
g3
I00
sg4
S'Root'
p169
sg6
g7
((lp170
S'Hardware'
p171
aS'Programming'
p172
atp173
Rp174
sg11
I87
sg12
F0.0
sg13
(dp175
S'applet code'
p176
(lp177
sS'vb'
p178
(lp179
Vhttp://review.premierleague.com/
p180
aVhttp://origin-www.premierleague.com/page/Headlines/0,,12306~2155135,00.html
p181
asS'card drivers'
p182
(lp183
sS'java'
p184
(lp185
Vhttp://www2.premierleague.com/en-gb/matchday/matches/2015-2016/epl.past-meetings.html/arsenal-vs-everton
p186
asS'application windows'
p187
(lp188
Vhttps://www.premierleague.com/news/60177#!
p189
aVhttps://pma.premierleague.com/
p190
aVhttp://orig-www.premierleague.com/en-gb/news/features/transfer-deadline-day-how-deals-get-done.html
p191
aVhttp://orig-www.premierleague.com/content/premierleague/en-gb/news/news/2015-16/sep/010915-guide-to-transfer-deadline-day-summer-2015-16
p192
aVhttp://origin-www.premierleague.com/page/Headlines/0,,12306~2234236,00.html
p193
aVhttp://origin-www.premierleague.com/page/Headlines/0,,12306~2386516,00.html
p194
aVhttp://origin-www.premierleague.com/page/Headlines/0,,12306~2320892,00.html
p195
aVhttp://origin-www.premierleague.com/page/Headlines/0,,12306~2332006,00.html
p196
aVhttp://mobile.premierleague.com/staticFiles/e1/51/0,,12306~152033,00.pdf
p197
aVhttp://origin-www.premierleague.com/staticFiles/de/51/0,,12306~152030,00.pdf
p198
asS'card pc'
p199
(lp200
Vhttp://origin-www.premierleague.com/page/Headlines/0,,12306~2317454,00.html
p201
asS'avi file'
p202
(lp203
sS'buffer code'
p204
(lp205
sS'multimedia'
p206
(lp207
Vhttps://www.premierleague.com/partners/topps
p208
aVhttp://review.premierleague.com/2013-14/behind-the-scenes/grand-designs/
p209
aVhttps://www.premierleague.com/partners/topps#!
p210
asS'bytes code'
p211
(lp212
sS'module'
p213
(lp214
Vhttps://www.premierleague.com/news/58981#!
p215
aVhttps://www.premierleague.com/news/59346#!
p216
aVhttps://www.premierleague.com/news/58824#!
p217
aVhttps://www.premierleague.com/news/58956#!
p218
aVhttps://www.premierleague.com/news/59337#!
p219
aVhttps://www.premierleague.com/news/58948
p220
aVhttps://www.premierleague.com/news/58965#!
p221
aVhttp://origin-www.premierleague.com/page/Headlines/0,,12306~2290951,00.html
p222
aVhttps://www.premierleague.com/news/58973
p223
aVhttps://www.premierleague.com/news/58992
p224
asS'perl'
p225
(lp226
sS'bios'
p227
(lp228
sS'audio file'
p229
(lp230
Vhttp://mobile.premierleague.com/staticFiles/62/6b/0,,12306~93026,00.pdf
p231
aVhttps://www.premierleague.com/news/83478#!
p232
asS'pc windows'
p233
(lp234
Vhttp://www.premierleague.com/en-gb/news/news/2014-15/aug/fantasy-premier-league-2014-15-app-available.html
p235
aVhttps://users.premierleague.com/
p236
asS'card graphics'
p237
(lp238
sS'array code'
p239
(lp240
sS'shareware'
p241
(lp242
sS'cpu'
p243
(lp244
Vhttp://mobile.premierleague.com/page/Eagle
p245
asS'agp card'
p246
(lp247
sssg172
(dp248
g3
I01
sg4
S'Computers'
p249
sg6
g7
((lp250
tp251
Rp252
sg11
I66298
sg12
F0.0
sg13
(dp253
S'code'
p254
(lp255
Vhttps://fantasy.premierleague.com/?autojoin-code=598873-544425
p256
aVhttps://fantasy.premierleague.com/a/leagues/join/private
p257
aVhttps://users.premierleague.com/
p258
aVhttps://fantasy.premierleague.com/help/
p259
aVhttps://fanpanel.premierleague.com/FAQs.aspx
p260
aVhttps://www.premierleague.com/cookie-policy#!
p261
aVhttps://www.premierleague.com/news/65252
p262
aVhttp://www.premierleague.com/content/dam/premierleague/site-content/News/publications/other/English-Football-Inclusion-and-Anti-Discrimination-Action-Plan.pdf
p263
aVhttp://www.premierleague.com/en-gb/news/news/2013-14/oct/ea-sports-launch-league-for-fantasy-premier-league-managers.html
p264
aVhttps://www.premierleague.com/news/124087
p265
asS'argument'
p266
(lp267
Vhttps://www.premierleague.com/en-gb/matchday/tickets.html
p268
aVhttps://www.premierleague.com/news/96784#!
p269
aVhttp://vle.premierleague.com/file.php/204/147/16846/Sports%20Nutrition%20Ass%202%20VERSION2.doc
p270
aVhttps://www.premierleague.com/news/66244
p271
aVhttp://origin-www.premierleague.com/page/Headlines/0,,12306~2344836,00.html
p272
aVhttp://origin-www.premierleague.com/page/Headlines/0,,12306~2189552,00.html
p273
aVhttp://origin-www.premierleague.com/page/Headlines/0,,12306~2357197,00.html
p274
aVhttp://orig-www.premierleague.com/en-gb/news/news/2015-16/oct/131015-digital-review-around-the-clubs-on-social-media.html
p275
aVhttp://orig-www.premierleague.com/en-gb/news/news/2015-16/aug/110815-fpl-scout-gamechanger-managers-should-target-sergio-aguero-and-alexis-sanchez.html
p276
aVhttp://orig-www.premierleague.com/en-gb/news/news/2015-16/feb/250216-talking-tactics-manchester-united-arsenal.html
p277
asS'char'
p278
(lp279
Vhttp://mobile.premierleague.com/staticFiles/73/4/0,,12306~132211,00.pdf
p280
aVhttp://mobile.premierleague.com/staticFiles/2e/6d/0,,12306~93486,00.pdf
p281
aVhttp://mobile.premierleague.com/staticFiles/6e/4/0,,12306~132206,00.pdf
p282
asS'boolean'
p283
(lp284
sS'array'
p285
(lp286
Vhttps://www.premierleague.com/communities/programmes/schools/pl-primary-stars
p287
aVhttps://www.premierleague.com/news/67833
p288
aVhttps://www.premierleague.com/news/65107#!
p289
aVhttps://www.premierleague.com/news/116815
p290
aVhttps://www.premierleague.com/news/60725
p291
aVhttps://www.premierleague.com/news/69198#!
p292
aVhttps://www.premierleague.com/news/101229#!
p293
aVhttps://www.premierleague.com/news/75107
p294
aVhttps://www.premierleague.com/news/83604#!
p295
aVhttps://www.premierleague.com/news/83742#!
p296
asS'binary'
p297
(lp298
Vhttp://orig-www.premierleague.com/en-gb/news/news/2015-16/mar/070316-matchweek29-west-brom-vs-man-utd-post-match-statistics.html
p299
asS'container'
p300
(lp301
Vhttps://www.premierleague.com/news/59886#!
p302
aVhttp://origin-www.premierleague.com/staticFiles/1a/63/0,,12306~90906,00.pdf
p303
aVhttp://www.premierleague.com/en-gb/fans/faqs/when-does-2013-14-season-start/
p304
aVhttp://www2.premierleague.com/en-gb/matchday/matches/2015-2016/epl.past-meetings.html/arsenal-vs-everton
p305
aVhttp://orig-www.premierleague.com/en-gb/communities/2014-15/premier-league-and-the-fa-facilities-fund-boost-for-grassroots.html
p306
asS'borland'
p307
(lp308
sS'controls'
p309
(lp310
Vhttps://www.premierleague.com/gallery/64046
p311
aVhttps://www.premierleague.com/gallery/118076
p312
aVhttps://www.premierleague.com/gallery/126284
p313
aVhttp://orig-www.premierleague.com/content/dam/premierleague/site-content/about/fifa-laws-of-the-game-2015-16-referee.pdf
p314
aVhttp://origin-www.premierleague.com/page/Headlines/0,,12306~2330714,00.html
p315
aVhttp://origin-www.premierleague.com/staticFiles/da/f/0,,12306~135130,00.pdf
p316
aVhttps://www.premierleague.com/gallery/118076#!
p317
aVhttps://www.premierleague.com/gallery/64046#!
p318
aVhttp://mobile.premierleague.com/page/Galleries/0,,12306~1888979,00.html
p319
asS'perl'
p320
(lp321
sS'component'
p322
(lp323
Vhttps://www.premierleague.com/news/68338#!
p324
aVhttps://www.premierleague.com/news/84046
p325
aVhttps://www.premierleague.com/news/63261
p326
aVhttps://www.premierleague.com/news/96952#!
p327
aVhttps://www.premierleague.com/news/74529#!
p328
aVhttps://www.premierleague.com/news/61527
p329
aVhttps://www.premierleague.com/news/84046#!
p330
aVhttps://www.premierleague.com/news/61207
p331
aVhttps://www.premierleague.com/news/67850#!
p332
aVhttps://www.premierleague.com/communities/programmes/community-programmes/pl-kicks
p333
asS'actionlistener'
p334
(lp335
sS'ansi'
p336
(lp337
Vhttps://www.premierleague.com/players/12428/Ansi-Agolli/overview
p338
aVhttps://www.premierleague.com/match/10121
p339
aVhttps://www.premierleague.com/match/13323
p340
aVhttps://www.premierleague.com/match/10104
p341
aVhttps://www.premierleague.com/matchweek/1190/blog?match=true
p342
aVhttps://www.premierleague.com/match/13364
p343
aVhttps://www.premierleague.com/match/13386
p344
aVhttps://www.premierleague.com/match/10029
p345
aVhttps://www.premierleague.com/match/10073
p346
aVhttps://www.premierleague.com/match/13407
p347
asS'cpan'
p348
(lp349
sS'java'
p350
(lp351
Vhttp://www2.premierleague.com/en-gb/matchday/matches/2015-2016/epl.past-meetings.html/arsenal-vs-everton
p352
asS'class'
p353
(lp354
Vhttps://www.premierleague.com/news/59526#!
p355
aVhttps://www.premierleague.com/news/65602
p356
aVhttps://www.premierleague.com/news/117012
p357
aVhttps://www.premierleague.com/youth/education
p358
aVhttps://www.premierleague.com/news/58932
p359
aVhttps://www.premierleague.com/matchweek/1275/latest#!
p360
aVhttps://www.premierleague.com/
p361
aVhttps://www.premierleague.com/news/58932#!
p362
aVhttps://www.premierleague.com/news/65041
p363
aVhttp://review.premierleague.com/2014-15/the-football/world-class-premier-league-players.html
p364
asS'compiler'
p365
(lp366
Vhttp://www.premierleague.com/en-gb/news/features/how-the-fixture-list-is-compiled.html
p367
aVhttp://orig-www.premierleague.com/en-gb/news/features/how-the-fixture-list-is-compiled.html
p368
asS'alloc'
p369
(lp370
sS'compile'
p371
(lp372
Vhttp://www.premierleague.com/en-gb/news/features/how-the-fixture-list-is-compiled.html
p373
aVhttp://orig-www.premierleague.com/en-gb/matchday/matches/2014-2015/epl.tickets.html/burnley-vs-arsenal
p374
asS'alias'
p375
(lp376
sS'applet'
p377
(lp378
sS'api'
p379
(lp380
Vhttps://users.premierleague.com/
p381
aVhttps://fantasy.premierleague.com/
p382
aVhttps://www.premierleague.com/en-gb/players/index.html?paramSearchType=BY_STAT&paramSeason=2014-2015
p383
aVhttps://fantasy.premierleague.com/player-list/
p384
aVhttps://www.premierleague.com/page/Statistics
p385
aVhttp://www2.premierleague.com/en-gb/matchday/matches/2015-2016/epl.past-meetings.html/arsenal-vs-everton
p386
aVhttp://origin-www.premierleague.com/page/Top10Defenders/0,,12306,00.html
p387
aVhttp://www.premierleague.com/en-gb/news/news/2014-15/aug/fantasy-premier-league-2014-15-app-available.html
p388
aVhttp://www.premierleague.com/en-gb/news/news/2014-15/jul/fantasy-premier-league-2014-15-launches.html
p389
asS'algorithms'
p390
(lp391
sssS'Sports'
p392
(dp393
g3
I00
sg4
g169
sg6
g7
((lp394
S'Soccer'
p395
ag1
atp396
Rp397
sg11
I9910444
sg12
F0.0
sg13
(dp398
S'ball team'
p399
(lp400
Vhttps://fantasy.premierleague.com/a/team/dream/3
p401
aVhttps://www.premierleague.com/
p402
aVhttps://www.premierleague.com/match/14108
p403
aVhttps://www.premierleague.com/page/manchester-united
p404
aVhttps://www.premierleague.com/page/manchester-city-fc
p405
aVhttps://www.premierleague.com/fixtures
p406
aVhttps://www.premierleague.com/news
p407
aVhttps://www.premierleague.com/fantasy
p408
aVhttps://www.premierleague.com/stats
p409
aVhttps://www.premierleague.com/gallery/60417
p410
asS'avg nba'
p411
(lp412
sS'wnba'
p413
(lp414
sS'ncaa'
p415
(lp416
Vhttps://www.premierleague.com/en-gb/matchday/tickets.html
p417
aVhttp://www.premierleague.com/en-gb/fans/faqs/when-does-2013-14-season-start/
p418
aVhttps://www.premierleague.com/news/60125#!
p419
aVhttps://www.premierleague.com/en-gb/matchday/form-guide.html
p420
aVhttp://www.premierleague.com/en-gb/news/news/2014-15/january-transfer-window-2015.html
p421
aVhttp://orig-www.premierleague.com/en-gb/news/news/2016-17/jun/110616-released-colmer-relishing-life-after-southampton-in-america.html
p422
aVhttps://www.premierleague.com/news/60125?_escaped_fragment_=
p423
aVhttps://www.premierleague.com/news/60125
p424
aVhttps://www.premierleague.com/news/60125?_escaped_fragment_=#!
p425
aVhttp://www.premierleague.com/en-gb/clubs/profile.squads.html/crystal-palace
p426
asS'laker'
p427
(lp428
Vhttp://www.premierleague.com/en-gb/fans/faqs/when-does-2013-14-season-start/
p429
asS'teams'
p430
(lp431
Vhttps://www.premierleague.com/clubs
p432
aVhttps://www.premierleague.com/stats/top/clubs
p433
aVhttps://www.premierleague.com/youth
p434
aVhttps://www.premierleague.com/
p435
aVhttps://fantasy.premierleague.com/
p436
aVhttps://www.premierleague.com/page/Statistics
p437
aVhttps://www.premierleague.com/news/58756
p438
aVhttps://www.premierleague.com/stats/top/clubs#!
p439
aVhttps://www.premierleague.com/en-gb/matchday/league-table.html
p440
aVhttps://www.premierleague.com/en-gb/news.html
p441
asS'fans football'
p442
(lp443
Vhttps://www.premierleague.com/fan-panel
p444
aVhttps://fantasy.premierleague.com/
p445
aVhttp://fanresearch.premierleague.com/football-nation/domestic-fanbase.aspx
p446
aVhttps://www.premierleague.com/
p447
aVhttp://fanresearch.premierleague.com/global-fanbase.aspx
p448
aVhttp://fanresearch.premierleague.com/football-nation/beyond-the-stadium.aspx
p449
aVhttp://fanresearch.premierleague.com/the-best-of-football/welcome-to-the-premier-league.aspx
p450
aVhttps://users.premierleague.com/
p451
aVhttp://review.premierleague.com/2014-15/the-fans/modern-football-fans.html
p452
aVhttp://review.premierleague.com/2014-15/the-fans/full-stadiums.html
p453
asS'pacers'
p454
(lp455
Vhttp://www.premierleague.com/content/premierleague/en-gb/matchday/matches/2013-2014/epl.match-report.html/swansea-vs-liverpool
p456
asS'championship team'
p457
(lp458
Vhttps://www.premierleague.com/
p459
aVhttps://www.premierleague.com/page/manchester-united
p460
aVhttps://www.premierleague.com/news/64263#!
p461
aVhttps://www.premierleague.com/u18-premier-league-explained
p462
aVhttps://fantasy.premierleague.com/
p463
aVhttps://www.premierleague.com/managers/8060/overview
p464
aVhttps://www.premierleague.com/en-gb/clubs.html/
p465
aVhttps://www.premierleague.com/en-gb/matchday/league-table.html
p466
aVhttps://www.premierleague.com/managers/8060/overview#!
p467
aVhttp://www.premierleague.com/en-gb/about/history.html
p468
asS'avg league'
p469
(lp470
Vhttps://www.premierleague.com/en-gb/clubs/index.html
p471
aVhttps://www.premierleague.com/news/84051
p472
aVhttps://www.premierleague.com/news/77002
p473
aVhttps://www.premierleague.com/news/63261
p474
aVhttps://fantasy.premierleague.com/?fail
p475
aVhttps://www.premierleague.com/en-gb/players/profile.overview.html/adam-lallana
p476
aVhttp://orig-www.premierleague.com/en-gb/news/news/2015-16/mar/120316-matchweek30-key-battle-jordan-ayew-aston-villa-kevin-wimmer-tottenham-hotspur.html
p477
aVhttps://www.premierleague.com/news/63261?_escaped_fragment_=#!
p478
aVhttps://www.premierleague.com/news/63261?_escaped_fragment_=
p479
asS'blazers game'
p480
(lp481
Vhttps://fantasy.premierleague.com/a/team/2853145
p482
aVhttps://www.premierleague.com/news/112803
p483
aVhttps://www.premierleague.com/news/112803#!
p484
aVhttp://orig-www.premierleague.com/en-gb/news/news/2015-16/dec/031215-digital-review-around-the-clubs-on-social-media-crystal-palace.html
p485
asS'club league'
p486
(lp487
Vhttps://www.premierleague.com/stats
p488
aVhttps://www.premierleague.com/clubs/4/Chelsea/overview
p489
aVhttps://www.premierleague.com/clubs/25/West-Ham-United/overview
p490
aVhttps://www.premierleague.com/clubs/12/Manchester-United/overview
p491
aVhttps://www.premierleague.com/tables
p492
aVhttps://www.premierleague.com/clubs
p493
aVhttps://www.premierleague.com/stats/top/clubs
p494
aVhttps://www.premierleague.com/
p495
aVhttps://www.premierleague.com/youth
p496
aVhttps://www.premierleague.com/clubs/2/Aston-Villa/overview
p497
asS'ball league'
p498
(lp499
Vhttps://www.premierleague.com/
p500
aVhttps://www.premierleague.com/partners/nike#!
p501
aVhttps://www.premierleague.com/match/14060
p502
aVhttps://www.premierleague.com/fixtures
p503
aVhttps://www.premierleague.com/stats
p504
aVhttps://www.premierleague.com/tickets
p505
aVhttps://www.premierleague.com/video#!
p506
aVhttps://www.premierleague.com/results
p507
aVhttps://www.premierleague.com/clubs
p508
aVhttps://www.premierleague.com/fantasy
p509
asS'nba'
p510
(lp511
Vhttp://www.premierleague.com/en-gb/matchday/matches/2014-2015/epl.html/liverpool-vs-spurs
p512
aVhttps://www.premierleague.com/en-gb/players/profile.overview.html/brad-friedel
p513
aVhttps://www.premierleague.com/en-gb/matchday/league-table.html
p514
aVhttps://www.premierleague.com/page/Statistics
p515
aVhttps://users.premierleague.com/
p516
aVhttps://fantasy.premierleague.com/player-list/
p517
aVhttps://fantasy.premierleague.com/?t=1
p518
aVhttp://www.premierleague.com/content/premierleague/en-gb/news/podcasts.html
p519
aVhttp://mobile.premierleague.com/page/Headlines/0,,12306~1989429,00.html
p520
asS'soccer'
p521
(lp522
Vhttps://www.premierleague.com/page/arsenal
p523
aVhttps://www.premierleague.com/clubs/12/Manchester-United/overview
p524
aVhttps://www.premierleague.com/fixtures
p525
aVhttps://www.premierleague.com/match/3829
p526
aVhttps://www.premierleague.com/
p527
aVhttps://fantasy.premierleague.com/
p528
aVhttps://www.premierleague.com/page/manchester-city-fc
p529
aVhttps://users.premierleague.com/
p530
aVhttps://www.premierleague.com/en-gb/matchday/league-table.html
p531
aVhttps://www.premierleague.com/en-gb/players.html
p532
asS'game league'
p533
(lp534
Vhttps://fantasy.premierleague.com/a/team/375280#!
p535
aVhttps://www.premierleague.com/youth/games-programme
p536
aVhttps://www.premierleague.com/
p537
aVhttps://www.premierleague.com/news/67814
p538
aVhttps://www.premierleague.com/news/65240
p539
aVhttps://www.premierleague.com/referees
p540
aVhttps://www.premierleague.com/news/63617
p541
aVhttps://www.premierleague.com/match/14085
p542
aVhttps://www.premierleague.com/stats
p543
aVhttps://www.premierleague.com/news/66192
p544
asS'ball referee'
p545
(lp546
Vhttps://www.premierleague.com/referees
p547
aVhttps://www.premierleague.com/referees/appointments#!
p548
aVhttps://www.premierleague.com/news/60725
p549
aVhttps://www.premierleague.com/news/109964#!
p550
aVhttps://www.premierleague.com/news/105430
p551
aVhttps://www.premierleague.com/news/96640
p552
aVhttps://www.premierleague.com/news/78670
p553
aVhttps://www.premierleague.com/news/118483
p554
aVhttps://www.premierleague.com/page/manchester-united
p555
aVhttps://www.premierleague.com/news/68240
p556
asssg171
(dp557
g3
I01
sg4
g249
sg6
g7
((lp558
tp559
Rp560
sg11
I1
sg12
F0.0
sg13
(dp561
S'bios controller ide'
p562
(lp563
sS'cables drive floppy'
p564
(lp565
sS'motherboard'
p566
(lp567
Vhttp://www.premierleague.com/en-gb/news/news/2015-16/jun/020615-premier-league-payments-to-clubs-in-season-2014-15.html
p568
asS'board overclocking'
p569
(lp570
sS'bios'
p571
(lp572
sS'fsb overclocking'
p573
(lp574
sS'board fsb'
p575
(lp576
sssS'Health'
p577
(dp578
g3
I00
sg4
g169
sg6
g7
((lp579
g85
aS'Fitness'
p580
atp581
Rp582
sg11
I13190
sg12
F0.0
sg13
(dp583
S'cancer'
p584
(lp585
Vhttps://www.premierleague.com/news/111364
p586
aVhttp://origin-www.premierleague.com/page/Headlines/0,,12306~2317442,00.html
p587
aVhttp://mobile.premierleague.com/page/Magazinedettail/0,,12306~1374863,00.html
p588
aVhttp://orig-www.premierleague.com/en-gb/news/news/2016-17/jun/210616-reading-academy-manager-eamonn-dolan-dies.html
p589
aVhttps://www.premierleague.com/news/60823#!
p590
aVhttps://www.premierleague.com/gallery/101825
p591
aVhttps://www.premierleague.com/news/123631#!
p592
aVhttps://www.premierleague.com/news/101744#!
p593
aVhttp://origin-www.premierleague.com/page/Headlines/0,,12306~2323686,00.html
p594
aVhttp://origin-www.premierleague.com/page/Health/0,,12306,00.html
p595
asS'squats'
p596
(lp597
Vhttps://www.premierleague.com/en-gb/clubs.html/
p598
asS'carb carbs'
p599
(lp600
sS'walkers'
p601
(lp602
Vhttps://www.premierleague.com/en-gb/players/profile.html/kyle-walker
p603
aVhttp://fanresearch.premierleague.com/club-profiles/leicester-city.aspx
p604
aVhttp://origin-www.premierleague.com/page/Headlines/0,,12306~2362583,00.html
p605
aVhttp://origin-www.premierleague.com/page/NewsArchive/0,,12306,190,00.html
p606
aVhttp://orig-www.premierleague.com/content/premierleague/en-gb/news/features/on-this-day-september
p607
aVhttp://origin-www.premierleague.com/page/Headlines/0,,12306~2204150,00.html
p608
aVhttp://origin-www.premierleague.com/page/Headlines/0,,12306~2321644,00.html
p609
aVhttp://origin-www.premierleague.com/page/Headlines/0,,12306~2221833,00.html
p610
aVhttps://fantasy.premierleague.com/a/leagues/standings/22073/classic#!
p611
aVhttp://mobile.premierleague.com/page/Headlines/0,,12306~2262255,00.html
p612
asS'medical patient'
p613
(lp614
Vhttp://mobile.premierleague.com/page/Magazinedettail/0,,12306~1538885,00.html
p615
aVhttp://origin-www.premierleague.com/page/Headlines/0,,12306~2380882,00.html
p616
aVhttp://origin-www.premierleague.com/page/Headlines/0,,12306~2439882,00.html
p617
aVhttp://origin-www.premierleague.com/page/Headlines/0,,12306~2145637,00.html
p618
aVhttp://review.premierleague.com/2014-15/the-football/football-coaching.html
p619
aVhttp://mobile.premierleague.com/page/Headlines/0,,12306~2322421,00.html
p620
aVhttp://mobile.premierleague.com/page/Headlines/0,,12306~1427758,00.html
p621
asS'hospital patients'
p622
(lp623
Vhttp://mobile.premierleague.com/page/Magazinedettail/0,,12306~1443848,00.html
p624
aVhttp://origin-www.premierleague.com/page/Magazinedettail/0,,12306~1374863,00.html
p625
aVhttp://mobile.premierleague.com/page/Magazinedettail/0,,12306~2052100,00.html
p626
asS'aids'
p627
(lp628
Vhttp://origin-www.premierleague.com/page/Headlines/0,,12306~2318455,00.html
p629
aVhttps://www.premierleague.com/youth/elite-performance
p630
aVhttps://www.premierleague.com/news/60479#!
p631
aVhttps://www.premierleague.com/news/58934#!
p632
aVhttp://origin-www.premierleague.com/page/NewsArchive/0,,12306,255,00.html
p633
aVhttp://mobile.premierleague.com/page/Headlines/0,,12306~1988805,00.html
p634
aVhttp://orig-www.premierleague.com/en-gb/news/news/2014-15/nov/211114-vurnon-anita-and-emmanuel-riviere-pledge-support-to-newcastle-family-football-project.html
p635
aVhttp://mobile.premierleague.com/page/Magazinedettail/0,,12306~1538885,00.html
p636
aVhttp://orig-www.premierleague.com/en-gb/news/news/2014-15/may/310515-news-in-brief.html
p637
aVhttp://orig-www.premierleague.com/en-gb/communities/2014-15/man-utd-legend-paul-scholes-visits-facilities-fund-pitches-in-salford.html
p638
asS'hospital medical'
p639
(lp640
Vhttp://mobile.premierleague.com/page/Headlines/0,,12306~2522994,00.html
p641
aVhttp://origin-www.premierleague.com/page/Headlines/0,,12306~2347706,00.html
p642
aVhttp://origin-www.premierleague.com/page/Headlines/0,,12306~2403804,00.html
p643
aVhttp://origin-www.premierleague.com/page/Headlines/0,,12306~2307417,00.html
p644
aVhttp://origin-www.premierleague.com/page/Headlines/0,,12306~2305369,00.html
p645
aVhttp://origin-www.premierleague.com/page/Headlines/0,,12306~1799961,00.html
p646
aVhttp://mobile.premierleague.com/page/Headlines/0,,12306~2406179,00.html
p647
aVhttp://mobile.premierleague.com/page/Magazinedettail/0,,12306~2052100,00.html
p648
aVhttp://orig-www.premierleague.com/en-gb/matchday/matches/2014-2015/epl.match-preview.html/spurs-vs-swansea
p649
asS'doctor health'
p650
(lp651
Vhttp://origin-www.premierleague.com/page/Magazinedettail/0,,12306~1570234,00.html
p652
aVhttp://origin-www.premierleague.com/page/Headlines/0,,12306~2224833,00.html
p653
aVhttp://origin-www.premierleague.com/page/Headlines/0,,12306~2248066,00.html
p654
aVhttp://origin-www.premierleague.com/page/Headlines/0,,12306~2336738,00.html
p655
aVhttp://mobile.premierleague.com/page/Magazinedettail/0,,12306~1414971,00.html
p656
asS'aerobic'
p657
(lp658
Vhttps://www.premierleague.com/en-gb/players/index.html?paramSearchType=BY_CLUB&paramSeason=squad&paramClubId=1
p659
aVhttp://vle.premierleague.com/file.php/204/147/16846/Sports%20Nutrition%20Ass%202%20VERSION2.doc
p660
aVhttp://www.premierleague.com/en-gb/clubs/profile.overview.html/stoke
p661
asS'fat muscle'
p662
(lp663
Vhttp://vle.premierleague.com/file.php/204/147/16846/Sports%20Nutrition%20Ass%202%20VERSION2.doc
p664
asS'aerobics'
p665
(lp666
sS'treadmill'
p667
(lp668
Vhttp://mobile.premierleague.com/page/Magazinedettail/0,,12306~2368035,00.html
p669
asS'acupuncture'
p670
(lp671
sS'nurse'
p672
(lp673
Vhttp://mobile.premierleague.com/staticFiles/16/94/0,,12306~103446,00.pdf
p674
aVhttp://origin-www.premierleague.com/page/Headlines/0,,12306~2266005,00.html
p675
aVhttp://origin-www.premierleague.com/page/Headlines/0,,12306~2361344,00.html
p676
aVhttp://origin-www.premierleague.com/page/Headlines/0,,12306~2205193,00.html
p677
aVhttp://origin-www.premierleague.com/page/Headlines/0,,12306~2142220,00.html
p678
aVhttp://mobile.premierleague.com/staticFiles/6b/44/0,,12306~148587,00.pdf
p679
aVhttp://mobile.premierleague.com/page/Magazinedettail/0,,12306~2445993,00.html
p680
asS'hiv'
p681
(lp682
Vhttp://origin-www.premierleague.com/page/Headlines/0,,12306~2318455,00.html
p683
aVhttp://origin-www.premierleague.com/page/NewsArchive/0,,12306,255,00.html
p684
aVhttp://mobile.premierleague.com/page/Headlines/0,,12306~1988805,00.html
p685
aVhttps://www.premierleague.com/en-gb/news.html
p686
aVhttp://mobile.premierleague.com/staticFiles/1a/63/0,,12306~90906,00.pdf
p687
aVhttp://mobile.premierleague.com/page/Headlines/0,,12306~1417061,00.html
p688
aVhttp://orig-www.premierleague.com/en-gb/news/news/2013-14/oct/coaches-praise-work-of-premier-league-premier-skills-programme.html
p689
asS'cardiology'
p690
(lp691
sS'cholesterol'
p692
(lp693
Vhttp://mobile.premierleague.com/staticFiles/6b/44/0,,12306~148587,00.pdf
p694
aVhttp://orig-www.premierleague.com/en-gb/news/news/2015-16/dec/091215-newcastle-united-daryl-janmaat-newcastle-united-foundation.html
p695
asS'calories fat'
p696
(lp697
sS'diet'
p698
(lp699
Vhttp://vle.premierleague.com/file.php/204/147/16846/Sports%20Nutrition%20Ass%202%20VERSION2.doc
p700
aVhttps://www.premierleague.com/news/58956#!
p701
aVhttp://origin-www.premierleague.com/page/Headlines/0,,12306~2441323,00.html
p702
aVhttp://origin-www.premierleague.com/page/Headlines/0,,12306~2307765,00.html
p703
aVhttps://www.premierleague.com/en-gb/players/profile.overview.html/kasper-schmeichel
p704
aVhttps://www.premierleague.com/en-gb/referees.html
p705
aVhttp://mobile.premierleague.com/staticFiles/ee/93/0,,12306~103406,00.pdf
p706
aVhttp://mobile.premierleague.com/page/Magazinedettail/0,,12306~1815969,00.html
p707
aVhttp://mobile.premierleague.com/page/Headlines/0,,12306~2049927,00.html
p708
aVhttp://mobile.premierleague.com/staticFiles/da/f/0,,12306~135130,00.pdf
p709
asS'doctor medical'
p710
(lp711
Vhttp://origin-www.premierleague.com/page/Headlines/0,,12306~2347706,00.html
p712
aVhttp://origin-www.premierleague.com/page/Headlines/0,,12306~2417385,00.html
p713
aVhttp://origin-www.premierleague.com/page/Headlines/0,,12306~2239672,00.html
p714
aVhttp://orig-www.premierleague.com/content/dam/premierleague/site-content/News/publications/other/youth-development-rules-2013-2014.pdf
p715
aVhttp://origin-www.premierleague.com/staticFiles/4f/53/0,,12306~152399,00.pdf
p716
aVhttp://origin-www.premierleague.com/page/Headlines/0,,12306~2269053,00.html
p717
aVhttp://origin-www.premierleague.com/page/Headlines/0,,12306~2181089,00.html
p718
aVhttp://origin-www.premierleague.com/page/Headlines/0,,12306~2184163,00.html
p719
aVhttp://mobile.premierleague.com/staticFiles/2e/3/0,,12306~131886,00.pdf
p720
aVhttp://mobile.premierleague.com/staticFiles/7c/53/0,,12306~152444,00.pdf
p721
asS'patients treatment'
p722
(lp723
Vhttp://mobile.premierleague.com/page/Magazinedettail/0,,12306~2052100,00.html
p724
aVhttp://origin-www.premierleague.com/page/Headlines/0,,12306~2209378,00.html
p725
aVhttp://mobile.premierleague.com/page/Magazinedettail/0,,12306~1374863,00.html
p726
aVhttp://mobile.premierleague.com/page/Magazinedettail/0,,12306~1538885,00.html
p727
aVhttp://mobile.premierleague.com/page/Magazinedettail/0,,12306~1443848,00.html
p728
asS'health nutritional'
p729
(lp730
Vhttp://mobile.premierleague.com/page/CommunityHeadlines/0,,12306~1645807,00.html
p731
asS'diabetes'
p732
(lp733
Vhttp://mobile.premierleague.com/staticFiles/16/94/0,,12306~103446,00.pdf
p734
aVhttp://mobile.premierleague.com/page/Magazinedettail/0,,12306~2367991,00.html
p735
aVhttp://mobile.premierleague.com/staticFiles/ec/65/0,,12306~91628,00.pdf
p736
aVhttp://origin-www.premierleague.com/page/Headlines/0,,12306~2253558,00.html
p737
aVhttp://orig-www.premierleague.com/en-gb/news/news/2015-16/dec/091215-newcastle-united-daryl-janmaat-newcastle-united-foundation.html
p738
asS'eating fat'
p739
(lp740
Vhttp://mobile.premierleague.com/page/Magazinedettail/0,,12306~2367991,00.html
p741
aVhttp://origin-www.premierleague.com/page/Headlines/0,,12306~2253558,00.html
p742
asS'medical treatment'
p743
(lp744
Vhttp://orig-www.premierleague.com/en-gb/matchday/matches/2015-2016/epl.past-meetings.html/stoke-vs-bournemouth
p745
aVhttp://origin-www.premierleague.com/page/Headlines/0,,12306~2290432,00.html
p746
aVhttp://origin-www.premierleague.com/page/Headlines/0,,12306~2311528,00.html
p747
aVhttp://origin-www.premierleague.com/page/Magazinedettail/0,,12306~2052100,00.html
p748
aVhttp://origin-www.premierleague.com/page/Headlines/0,,12306~2180460,00.html
p749
aVhttp://origin-www.premierleague.com/page/Headlines/0,,12306~2206236,00.html
p750
aVhttp://www.premierleague.com/en-gb/rules-regulations.html
p751
aVhttp://origin-www.premierleague.com/page/Headlines/0,,12306~2144475,00.html
p752
aVhttp://mobile.premierleague.com/page/Headlines/0,,12306~2522994,00.html
p753
aVhttp://origin-www.premierleague.com/page/Headlines/0,,12306~1799961,00.html
p754
asS'insulin'
p755
(lp756
sS'fitness'
p757
(lp758
Vhttp://www.premierleague.com/en-gb/news/features/peak-performance-the-science-behind-player-fitness.html
p759
aVhttps://www.premierleague.com/en-gb/players/index.html?paramSearchType=BY_CLUB&paramSeason=squad&paramClubId=1
p760
aVhttps://www.premierleague.com/news/58973
p761
aVhttps://www.premierleague.com/news/128870#!
p762
aVhttps://www.premierleague.com/news/132822#!
p763
aVhttps://www.premierleague.com/news/128872
p764
aVhttps://users.premierleague.com/
p765
aVhttps://www.premierleague.com/en-gb/players/ea-sports-player-performance-index.html
p766
aVhttp://www.premierleague.com/en-gb/news/news/2014-15/nov/161114-sergio-aguero-in-numbers-on-course-to-break-goals-scored-record.html
p767
aVhttps://www.premierleague.com/youth/elite-performance
p768
asS'health medicine'
p769
(lp770
Vhttps://www.premierleague.com/news/58973
p771
aVhttp://review.premierleague.com/2014-15/the-communities/premier-league-communities-strategy.html
p772
aVhttp://origin-www.premierleague.com/staticFiles/46/9b/0,,12306~105286,00.pdf
p773
aVhttp://review.premierleague.com/2014-15/pdf/Premier_League_Communities_1415.pdf
p774
aVhttp://origin-www.premierleague.com/page/Headlines/0,,12306~2224833,00.html
p775
asssg580
(dp776
g3
I01
sg4
g87
sg6
g7
((lp777
tp778
Rp779
sg11
I18663
sg12
F0.0
sg13
(dp780
S'calories protein'
p781
(lp782
sS'walking'
p783
(lp784
Vhttps://www.premierleague.com/news/128293
p785
aVhttps://www.premierleague.com/news/69097
p786
aVhttps://www.premierleague.com/news/68553
p787
aVhttps://www.premierleague.com/news/58756
p788
aVhttps://www.premierleague.com/news/69232
p789
aVhttps://www.premierleague.com/news/97642
p790
aVhttps://www.premierleague.com/news/58895
p791
aVhttps://www.premierleague.com/news/67833
p792
aVhttps://www.premierleague.com/news/46369?_escaped_fragment_=#!
p793
aVhttps://www.premierleague.com/news/116921
p794
asS'exercise protein'
p795
(lp796
sS'aerobic'
p797
(lp798
Vhttps://www.premierleague.com/en-gb/players/index.html?paramSearchType=BY_CLUB&paramSeason=squad&paramClubId=1
p799
aVhttp://vle.premierleague.com/file.php/204/147/16846/Sports%20Nutrition%20Ass%202%20VERSION2.doc
p800
aVhttp://www.premierleague.com/en-gb/clubs/profile.overview.html/stoke
p801
asS'workout'
p802
(lp803
Vhttp://www.premierleague.com/en-gb/news/features/peak-performance-the-science-behind-player-fitness.html
p804
aVhttps://users.premierleague.com/
p805
aVhttp://www.premierleague.com/content/premierleague/en-gb/youth/elite-player-performance-plan.html
p806
aVhttps://www.premierleague.com/managers/2639/overview
p807
aVhttp://origin-www.premierleague.com/page/Headlines/0,,12306~2264928,00.html
p808
aVhttp://origin-www.premierleague.com/page/Headlines/0,,12306~2388321,00.html
p809
aVhttps://www.premierleague.com/news/66892#!
p810
aVhttps://www.premierleague.com/news/67313
p811
aVhttp://orig-www.premierleague.com/en-gb/matchday/matches/2016-2017/epl.match-preview.html/west-brom-vs-chelsea
p812
aVhttp://orig-www.premierleague.com/content/premierleague/en-gb/matchday/matches/2015-2016/epl.tickets.html/watford-vs-southampton
p813
asS'challenge walk'
p814
(lp815
Vhttp://origin-www.premierleague.com/page/Headlines/0,,12306~2265721,00.html
p816
aVhttps://www.premierleague.com/news/61324#!
p817
aVhttps://www.premierleague.com/news/58992
p818
aVhttps://www.premierleague.com/news/59641
p819
aVhttp://origin-www.premierleague.com/page/Headlines/0,,12306~2354461,00.html
p820
aVhttps://www.premierleague.com/communities?_escaped_fragment_=
p821
aVhttp://origin-www.premierleague.com/page/Headlines/0,,12306~2142860,00.html
p822
aVhttp://origin-www.premierleague.com/page/Headlines/0,,12306~2221217,00.html
p823
aVhttp://origin-www.premierleague.com/page/Headlines/0,,12306~2233887,00.html
p824
aVhttp://origin-www.premierleague.com/page/Headlines/0,,12306~2170474,00.html
p825
asS'eating protein'
p826
(lp827
sS'fat'
p828
(lp829
Vhttp://vle.premierleague.com/file.php/204/147/16846/Sports%20Nutrition%20Ass%202%20VERSION2.doc
p830
aVhttp://origin-www.premierleague.com/page/Headlines/0,,12306~2253558,00.html
p831
aVhttp://www.premierleague.com/content/premierleague/en-gb/youth/elite-player-performance-plan.html
p832
aVhttps://www.premierleague.com/en-gb/referees.html
p833
aVhttp://mobile.premierleague.com/page/Magazinedettail/0,,12306~2367991,00.html
p834
aVhttps://www.premierleague.com/en-gb/players/profile.html/frank-lampard
p835
asS'dairy milk'
p836
(lp837
sS'calories weight'
p838
(lp839
sS'bodybuilding protein'
p840
(lp841
sS'fitness'
p842
(lp843
Vhttp://www.premierleague.com/en-gb/news/features/peak-performance-the-science-behind-player-fitness.html
p844
aVhttps://www.premierleague.com/en-gb/players/index.html?paramSearchType=BY_CLUB&paramSeason=squad&paramClubId=1
p845
aVhttps://www.premierleague.com/news/58973
p846
aVhttps://www.premierleague.com/news/128870#!
p847
aVhttps://www.premierleague.com/news/132822#!
p848
aVhttps://www.premierleague.com/news/128872
p849
aVhttps://users.premierleague.com/
p850
aVhttps://www.premierleague.com/en-gb/players/ea-sports-player-performance-index.html
p851
aVhttp://www.premierleague.com/en-gb/news/news/2014-15/nov/161114-sergio-aguero-in-numbers-on-course-to-break-goals-scored-record.html
p852
aVhttps://www.premierleague.com/youth/elite-performance
p853
asS'acid diets'
p854
(lp855
sS'eating weight'
p856
(lp857
Vhttp://mobile.premierleague.com/staticFiles/ee/93/0,,12306~103406,00.pdf
p858
asS'exercise weight'
p859
(lp860
Vhttps://fantasy.premierleague.com/help/
p861
aVhttp://origin-www.premierleague.com/page/Headlines/0,,12306~2221217,00.html
p862
aVhttp://mobile.premierleague.com/staticFiles/c3/4d/0,,12306~150979,00.doc
p863
asssg395
(dp864
g3
I01
sg4
g5
sg6
g7
((lp865
tp866
Rp867
sg11
I2305496
sg12
F0.0
sg13
(dp868
S'fifa'
p869
(lp870
Vhttps://www.premierleague.com/
p871
aVhttps://www.premierleague.com/news/60818#!
p872
aVhttps://www.premierleague.com/news/67814
p873
aVhttps://www.premierleague.com/news/61427
p874
aVhttps://www.premierleague.com/referees
p875
aVhttps://www.premierleague.com/about/football-partners
p876
aVhttps://www.premierleague.com/news/64463
p877
aVhttps://www.premierleague.com/partners/ea-sports
p878
aVhttps://fantasy.premierleague.com/
p879
aVhttps://www.premierleague.com/news/60818
p880
asS'liverpool'
p881
(lp882
Vhttps://www.premierleague.com/clubs/10/Liverpool/overview
p883
aVhttps://www.premierleague.com/clubs/10/Liverpool/stadium
p884
aVhttps://www.premierleague.com/clubs/10/Liverpool/stats
p885
aVhttps://www.premierleague.com/clubs/10/Liverpool/tickets
p886
aVhttps://www.premierleague.com/fixtures
p887
aVhttps://www.premierleague.com/players/3712/Jordan-Henderson/overview
p888
aVhttps://www.premierleague.com/
p889
aVhttps://www.premierleague.com/clubs/10/Liverpool/fixtures
p890
aVhttp://www.premierleague.com/en-gb/matchday/matches/2014-2015/epl.html/arsenal-vs-liverpool
p891
aVhttps://www.premierleague.com/players/3154/Daniel-Sturridge/overview
p892
asS'mls'
p893
(lp894
Vhttps://fantasy.premierleague.com/
p895
aVhttps://www.premierleague.com/news/62689
p896
aVhttps://www.premierleague.com/page/Statistics
p897
aVhttps://www.premierleague.com/managers/9139/overview
p898
aVhttps://www.premierleague.com/page/manchester-united
p899
aVhttps://www.premierleague.com/news/62772#!
p900
aVhttp://origin-www.premierleague.com/page/Home/0,,12306,00.html
p901
aVhttps://www.premierleague.com/news/117639
p902
aVhttps://www.premierleague.com/en-gb/matchday/league-table.html
p903
aVhttps://www.premierleague.com/news/62772
p904
asS'lazio'
p905
(lp906
Vhttps://www.premierleague.com/clubs/95/Lazio/overview#!
p907
aVhttps://www.premierleague.com/clubs/95/Lazio/stats
p908
aVhttps://www.premierleague.com/clubs/95/Lazio/results
p909
aVhttps://www.premierleague.com/clubs/95/Lazio/tickets
p910
aVhttps://www.premierleague.com/clubs/95/Lazio/fixtures
p911
aVhttps://www.premierleague.com/players/6798/Miroslav-Klose/stats
p912
aVhttps://www.premierleague.com/players/6788/Senad-Lulic/overview#!
p913
aVhttps://www.premierleague.com/players/3951/Lorik-Cana/overview
p914
aVhttps://www.premierleague.com/players/6765/Federico-Marchetti/overview#!
p915
aVhttps://www.premierleague.com/players/6788/Senad-Lulic/stats
p916
asS'bundesliga'
p917
(lp918
Vhttps://www.premierleague.com/news/64084#!
p919
aVhttps://www.premierleague.com/managers/5285/overview
p920
aVhttps://www.premierleague.com/managers/5119/overview
p921
aVhttps://www.premierleague.com/news/66231
p922
aVhttps://users.premierleague.com/
p923
aVhttps://www.premierleague.com/news/106616#!
p924
aVhttps://www.premierleague.com/news/60169
p925
aVhttps://www.premierleague.com/en-gb/matchday/matches.html
p926
aVhttps://www.premierleague.com/news/68213
p927
aVhttps://www.premierleague.com/en-gb/matchday/league-table.html
p928
asS'premiership'
p929
(lp930
Vhttps://www.premierleague.com/
p931
aVhttps://fantasy.premierleague.com/
p932
aVhttps://www.premierleague.com/fixtures
p933
aVhttps://www.premierleague.com/stats
p934
aVhttps://www.premierleague.com/clubs
p935
aVhttps://www.premierleague.com/page/manchester-united
p936
aVhttps://www.premierleague.com/en-gb/matchday/league-table.html
p937
aVhttps://www.premierleague.com/history/2015-16
p938
aVhttps://www.premierleague.com/en-gb/news.html
p939
aVhttps://www.premierleague.com/en-gb/videos.html
p940
asS'leeds'
p941
(lp942
Vhttps://www.premierleague.com/clubs/9/Leeds-United/overview
p943
aVhttps://www.premierleague.com/clubs/9/Leeds-United/stats
p944
aVhttps://www.premierleague.com/clubs/9/Leeds-United/tickets#!
p945
aVhttps://www.premierleague.com/clubs/43/Burnley/stadium
p946
aVhttps://www.premierleague.com/clubs/9/Leeds-United/squad
p947
aVhttps://www.premierleague.com/clubs/9/Leeds-United/fixtures
p948
aVhttps://www.premierleague.com/news/63955
p949
aVhttps://www.premierleague.com/players/239/Gary-Speed/overview
p950
aVhttps://www.premierleague.com/news/59999
p951
aVhttps://www.premierleague.com/news/63955#!
p952
asS'juventus'
p953
(lp954
Vhttps://www.premierleague.com/clubs/62/Juventus/overview#!
p955
aVhttps://www.premierleague.com/clubs/62/Juventus/stats#!
p956
aVhttps://www.premierleague.com/clubs/62/Juventus/stadium#!
p957
aVhttps://www.premierleague.com/news/103155#!
p958
aVhttps://www.premierleague.com/news/68361#!
p959
aVhttps://www.premierleague.com/clubs/62/Juventus/stats
p960
aVhttps://www.premierleague.com/news/65585
p961
aVhttps://www.premierleague.com/clubs/62/Juventus/squad#!
p962
aVhttps://www.premierleague.com/news/69198#!
p963
aVhttps://www.premierleague.com/news/68299
p964
asS'bayern'
p965
(lp966
Vhttps://www.premierleague.com/news/67833
p967
aVhttps://www.premierleague.com/news/58908
p968
aVhttps://www.premierleague.com/news/64146
p969
aVhttps://www.premierleague.com/players/2658/Arjen-Robben/stats#!
p970
aVhttps://www.premierleague.com/players/5260/David-Alaba/overview
p971
aVhttps://www.premierleague.com/players/5260/David-Alaba/stats
p972
aVhttps://www.premierleague.com/news/63917
p973
aVhttps://www.premierleague.com/news/60169
p974
aVhttps://www.premierleague.com/managers/5285/overview
p975
aVhttps://www.premierleague.com/news/62864
p976
asS'uefa'
p977
(lp978
Vhttps://www.premierleague.com/news/58908
p979
aVhttps://www.premierleague.com/news/58756
p980
aVhttps://www.premierleague.com/
p981
aVhttps://www.premierleague.com/referees/16961/overview
p982
aVhttps://www.premierleague.com/about/football-partners
p983
aVhttps://fantasy.premierleague.com/
p984
aVhttps://www.premierleague.com/news/63617
p985
aVhttps://www.premierleague.com/news/63867
p986
aVhttps://www.premierleague.com/managers/5285/overview
p987
aVhttps://www.premierleague.com/players/4844/Hal-Robson-Kanu/overview#!
p988
asS'hooliganism'
p989
(lp990
Vhttp://mobile.premierleague.com/page/History/0,,12306,00.html
p991
aVhttp://mobile.premierleague.com/staticFiles/eb/65/0,,12306~91627,00.pdf
p992
asssS'Root'
p993
(dp994
g3
I00
sg4
Nsg6
g7
((lp995
g167
ag577
ag392
atp996
Rp997
sg11
I0
sg12
F1.0
sg13
(dp998
ss.