(dp0
S'Basketball'
p1
(dp2
S'is_leaf'
p3
I01
sS'parent'
p4
S'Sports'
p5
sS'sub_categories'
p6
c__builtin__
set
p7
((lp8
tp9
Rp10
sS'coverage'
p11
I131
sS'specificity'
p12
F0.0
sS'probes'
p13
(dp14
S'shaq'
p15
(lp16
Vhttps://www.premierleague.com/news/83709#!
p17
aVhttps://www.premierleague.com/news/58908#!
p18
aVhttps://www.premierleague.com/news/68361#!
p19
aVhttps://www.premierleague.com/players/4823/Matthew-Etherington/overview
p20
aVhttps://www.premierleague.com/news/73059#!
p21
aVhttps://www.premierleague.com/news/102420#!
p22
aVhttps://www.premierleague.com/news/119014
p23
aVhttps://www.premierleague.com/news/74981#!
p24
aVhttps://www.premierleague.com/news/64289#!
p25
aVhttps://www.premierleague.com/news/78690#!
p26
asS'laettner'
p27
(lp28
sS'knicks'
p29
(lp30
sS'wnba'
p31
(lp32
sS'laker'
p33
(lp34
Vhttp://www.premierleague.com/en-gb/fans/faqs/when-does-2013-14-season-start/
p35
asS'blazers'
p36
(lp37
Vhttps://fantasy.premierleague.com/a/team/2853145
p38
aVhttps://www.premierleague.com/news/112803#!
p39
aVhttps://www.premierleague.com/news/112803
p40
aVhttp://orig-www.premierleague.com/en-gb/news/news/2015-16/dec/031215-digital-review-around-the-clubs-on-social-media-crystal-palace.html
p41
aVhttp://www.premierleague.com/page/Podcast
p42
asS'sabonis'
p43
(lp44
sS'pacers'
p45
(lp46
Vhttp://www.premierleague.com/content/premierleague/en-gb/matchday/matches/2013-2014/epl.match-report.html/swansea-vs-liverpool
p47
asS'shaquille'
p48
(lp49
Vhttps://www.premierleague.com/news/84136
p50
aVhttps://www.premierleague.com/news/60426?_escaped_fragment_=
p51
aVhttp://origin-www.premierleague.com/staticFiles/13/79/0,,12306~162067,00.pdf
p52
aVhttp://origin-www.premierleague.com/page/Magazinedettail/0,,12306~2445993,00.html
p53
aVhttps://www.premierleague.com/news/69430
p54
aVhttp://origin-www.premierleague.com/page/Headlines/0,,12306~2142220,00.html
p55
aVhttp://orig-www.premierleague.com/en-gb/news/news/2015-16/aug/250815-barclays-under-21-premier-league-review.html
p56
aVhttp://orig-www.premierleague.com/en-gb/news/news/2015-16/feb/180216-bu21pl-review-chelsea-5-norwich-0.html
p57
aVhttp://orig-www.premierleague.com/en-gb/news/news/2015-16/jun/100615-premier-league-clubs-submit-retained-and-released-lists.html
p58
aVhttp://orig-www.premierleague.com/en-gb/news/news/2014-15/feb/040215-updated-premier-league-squad-lists-2014-2015.html
p59
asS'kobe'
p60
(lp61
Vhttp://www.premierleague.com/page/portsmouth
p62
aVhttp://orig-www.premierleague.com/en-gb/clubs/managers/profile.overview.html/michael-laudrup
p63
asS'nba'
p64
(lp65
Vhttp://www.premierleague.com/en-gb/matchday/matches/2014-2015/epl.html/liverpool-vs-spurs
p66
aVhttps://www.premierleague.com/en-gb/players/profile.overview.html/brad-friedel
p67
aVhttps://www.premierleague.com/en-gb/matchday/league-table.html
p68
aVhttps://www.premierleague.com/page/Statistics
p69
aVhttps://users.premierleague.com/
p70
aVhttps://fantasy.premierleague.com/player-list/
p71
aVhttps://fantasy.premierleague.com/?t=1
p72
aVhttp://www.premierleague.com/content/premierleague/en-gb/news/podcasts.html
p73
aVhttp://mobile.premierleague.com/page/Headlines/0,,12306~1989429,00.html
p74
asS'rebounds'
p75
(lp76
Vhttps://fantasy.premierleague.com/help/
p77
aVhttps://www.premierleague.com/news/66377#!
p78
aVhttp://origin-www.premierleague.com/page/Headlines/0,,12306~2465114,00.html
p79
aVhttps://www.premierleague.com/news/66377
p80
aVhttps://www.premierleague.com/news/66377?_escaped_fragment_=#!
p81
asS'dunks'
p82
(lp83
Vhttps://fantasy.premierleague.com/a/team/59789
p84
asssS'Diseases'
p85
(dp86
g3
I01
sg4
S'Health'
p87
sg6
g7
((lp88
tp89
Rp90
sg11
I6393
sg12
F0.0
sg13
(dp91
S'radiation treatment'
p92
(lp93
sS'aspirin cardiologist'
p94
(lp95
sS'cancer'
p96
(lp97
Vhttps://www.premierleague.com/news/60823#!
p98
aVhttp://origin-www.premierleague.com/page/Headlines/0,,12306~2317442,00.html
p99
aVhttp://mobile.premierleague.com/staticFiles/16/94/0,,12306~103446,00.pdf
p100
aVhttp://orig-www.premierleague.com/en-gb/news/news/2016-17/jun/210616-reading-academy-manager-eamonn-dolan-dies.html
p101
aVhttps://www.premierleague.com/news/111364
p102
aVhttps://www.premierleague.com/gallery/101825
p103
aVhttp://origin-www.premierleague.com/page/Magazinedettail/0,,12306~1374863,00.html
p104
aVhttps://www.premierleague.com/news/123631#!
p105
aVhttp://origin-www.premierleague.com/page/Health/0,,12306,00.html
p106
aVhttp://origin-www.premierleague.com/page/Headlines/0,,12306~2323686,00.html
p107
asS'hiv'
p108
(lp109
Vhttp://origin-www.premierleague.com/page/Headlines/0,,12306~2318455,00.html
p110
aVhttp://origin-www.premierleague.com/page/NewsArchive/0,,12306,255,00.html
p111
aVhttp://mobile.premierleague.com/page/Headlines/0,,12306~1988805,00.html
p112
aVhttps://www.premierleague.com/en-gb/news.html
p113
aVhttp://mobile.premierleague.com/staticFiles/1a/63/0,,12306~90906,00.pdf
p114
aVhttp://mobile.premierleague.com/page/Headlines/0,,12306~1417061,00.html
p115
aVhttp://orig-www.premierleague.com/en-gb/news/news/2013-14/oct/coaches-praise-work-of-premier-league-premier-skills-programme.html
p116
asS'cardiology'
p117
(lp118
sS'dental'
p119
(lp120
Vhttps://fantasy.premierleague.com/?fail
p121
asS'cholesterol doctor'
p122
(lp123
sS'blood insulin'
p124
(lp125
sS'cholesterol lipitor'
p126
(lp127
sS'heart surgery'
p128
(lp129
Vhttp://mobile.premierleague.com/page/newcastle-united
p130
aVhttp://origin-www.premierleague.com/page/Headlines/0,,12306~2514980,00.html
p131
aVhttps://www.premierleague.com/history/2008-09
p132
aVhttp://orig-www.premierleague.com/en-gb/news/features/on-this-day-9-february.html
p133
aVhttp://origin-www.premierleague.com/page/Headlines/0,,12306~2344247,00.html
p134
aVhttp://origin-www.premierleague.com/page/Headlines/0,,12306~2344618,00.html
p135
aVhttp://origin-www.premierleague.com/page/Headlines/0,,12306~2176380,00.html
p136
aVhttp://origin-www.premierleague.com/page/MatchReports/0,,12306~58269,00.html
p137
aVhttp://mobile.premierleague.com/page/Headlines/0,,12306~2523641,00.html
p138
aVhttp://origin-www.premierleague.com/page/Headlines/0,,12306~2442879,00.html
p139
asS'aspirin cholesterol'
p140
(lp141
sS'aids'
p142
(lp143
Vhttp://origin-www.premierleague.com/page/Headlines/0,,12306~2318455,00.html
p144
aVhttps://www.premierleague.com/youth/elite-performance
p145
aVhttps://www.premierleague.com/news/60479#!
p146
aVhttps://www.premierleague.com/news/58934#!
p147
aVhttp://origin-www.premierleague.com/page/NewsArchive/0,,12306,255,00.html
p148
aVhttp://mobile.premierleague.com/page/Headlines/0,,12306~1988805,00.html
p149
aVhttp://orig-www.premierleague.com/en-gb/news/news/2014-15/nov/211114-vurnon-anita-and-emmanuel-riviere-pledge-support-to-newcastle-family-football-project.html
p150
aVhttp://mobile.premierleague.com/page/Magazinedettail/0,,12306~1538885,00.html
p151
aVhttp://orig-www.premierleague.com/en-gb/news/news/2014-15/may/310515-news-in-brief.html
p152
aVhttp://orig-www.premierleague.com/en-gb/communities/2014-15/man-utd-legend-paul-scholes-visits-facilities-fund-pitches-in-salford.html
p153
asS'blood heart'
p154
(lp155
Vhttp://mobile.premierleague.com/page/Magazinedettail/0,,12306~2145528,00.html
p156
aVhttp://origin-www.premierleague.com/page/Headlines/0,,12306~2228301,00.html
p157
aVhttp://origin-www.premierleague.com/page/Headlines/0,,12306~2347706,00.html
p158
aVhttp://origin-www.premierleague.com/page/Headlines/0,,12306~2317396,00.html
p159
aVhttp://orig-www.premierleague.com/en-gb/matchday/matches/2012-2013/epl.tv-radio.html/swansea-vs-man-city
p160
asS'diabetes'
p161
(lp162
Vhttp://mobile.premierleague.com/staticFiles/16/94/0,,12306~103446,00.pdf
p163
aVhttp://mobile.premierleague.com/page/Magazinedettail/0,,12306~2367991,00.html
p164
aVhttp://mobile.premierleague.com/staticFiles/ec/65/0,,12306~91628,00.pdf
p165
aVhttp://origin-www.premierleague.com/page/Headlines/0,,12306~2253558,00.html
p166
aVhttp://orig-www.premierleague.com/en-gb/news/news/2015-16/dec/091215-newcastle-united-daryl-janmaat-newcastle-united-foundation.html
p167
asssS'Computers'
p168
(dp169
g3
I00
sg4
S'Root'
p170
sg6
g7
((lp171
S'Hardware'
p172
aS'Programming'
p173
atp174
Rp175
sg11
I86
sg12
F0.0
sg13
(dp176
S'applet code'
p177
(lp178
sS'vb'
p179
(lp180
Vhttp://review.premierleague.com/
p181
aVhttp://origin-www.premierleague.com/page/Headlines/0,,12306~2155135,00.html
p182
asS'card drivers'
p183
(lp184
sS'java'
p185
(lp186
Vhttp://www2.premierleague.com/en-gb/matchday/matches/2015-2016/epl.past-meetings.html/arsenal-vs-everton
p187
asS'application windows'
p188
(lp189
Vhttps://www.premierleague.com/news/60177#!
p190
aVhttps://pma.premierleague.com/
p191
aVhttp://orig-www.premierleague.com/en-gb/news/features/transfer-deadline-day-how-deals-get-done.html
p192
aVhttp://orig-www.premierleague.com/content/premierleague/en-gb/news/news/2015-16/sep/010915-guide-to-transfer-deadline-day-summer-2015-16
p193
aVhttp://origin-www.premierleague.com/page/Headlines/0,,12306~2234236,00.html
p194
aVhttp://origin-www.premierleague.com/page/Headlines/0,,12306~2320892,00.html
p195
aVhttp://origin-www.premierleague.com/page/Headlines/0,,12306~2386516,00.html
p196
aVhttp://origin-www.premierleague.com/page/Headlines/0,,12306~2332006,00.html
p197
aVhttp://mobile.premierleague.com/staticFiles/e1/51/0,,12306~152033,00.pdf
p198
aVhttp://origin-www.premierleague.com/page/Headlines/0,,12306~2237690,00.html
p199
asS'card pc'
p200
(lp201
Vhttp://origin-www.premierleague.com/page/Headlines/0,,12306~2317454,00.html
p202
asS'avi file'
p203
(lp204
sS'buffer code'
p205
(lp206
sS'multimedia'
p207
(lp208
Vhttps://www.premierleague.com/partners/topps#!
p209
aVhttp://review.premierleague.com/2013-14/behind-the-scenes/grand-designs/
p210
aVhttps://www.premierleague.com/partners/topps
p211
asS'bytes code'
p212
(lp213
sS'module'
p214
(lp215
Vhttps://www.premierleague.com/news/58981#!
p216
aVhttps://www.premierleague.com/news/59346
p217
aVhttps://www.premierleague.com/news/59337#!
p218
aVhttps://www.premierleague.com/news/58973
p219
aVhttps://www.premierleague.com/news/58824#!
p220
aVhttps://www.premierleague.com/news/58944
p221
aVhttps://www.premierleague.com/news/58956
p222
aVhttps://www.premierleague.com/news/58948
p223
aVhttp://origin-www.premierleague.com/page/Headlines/0,,12306~2290951,00.html
p224
aVhttps://www.premierleague.com/news/58992
p225
asS'perl'
p226
(lp227
sS'bios'
p228
(lp229
sS'audio file'
p230
(lp231
Vhttp://mobile.premierleague.com/staticFiles/62/6b/0,,12306~93026,00.pdf
p232
aVhttps://www.premierleague.com/news/83478#!
p233
asS'pc windows'
p234
(lp235
Vhttp://www.premierleague.com/en-gb/news/news/2014-15/aug/fantasy-premier-league-2014-15-app-available.html
p236
aVhttps://users.premierleague.com/
p237
asS'card graphics'
p238
(lp239
sS'array code'
p240
(lp241
sS'shareware'
p242
(lp243
sS'cpu'
p244
(lp245
Vhttp://mobile.premierleague.com/page/Eagle
p246
asS'agp card'
p247
(lp248
sssg173
(dp249
g3
I01
sg4
S'Computers'
p250
sg6
g7
((lp251
tp252
Rp253
sg11
I63598
sg12
F0.0
sg13
(dp254
S'code'
p255
(lp256
Vhttps://fantasy.premierleague.com/?autojoin-code=598873-544425
p257
aVhttps://fantasy.premierleague.com/a/leagues/join/private
p258
aVhttps://users.premierleague.com/
p259
aVhttps://fanpanel.premierleague.com/FAQs.aspx
p260
aVhttps://fantasy.premierleague.com/help/
p261
aVhttps://www.premierleague.com/cookie-policy
p262
aVhttps://www.premierleague.com/news/124087
p263
aVhttps://fanpanel.premierleague.com/Register.aspx
p264
aVhttp://www.premierleague.com/content/dam/premierleague/site-content/News/publications/other/English-Football-Inclusion-and-Anti-Discrimination-Action-Plan.pdf
p265
aVhttps://www.premierleague.com/page/west-bromwich-albion
p266
asS'argument'
p267
(lp268
Vhttps://www.premierleague.com/en-gb/matchday/tickets.html
p269
aVhttps://www.premierleague.com/news/96784#!
p270
aVhttp://vle.premierleague.com/file.php/204/147/16846/Sports%20Nutrition%20Ass%202%20VERSION2.doc
p271
aVhttps://www.premierleague.com/news/66244
p272
aVhttp://origin-www.premierleague.com/page/Headlines/0,,12306~2344836,00.html
p273
aVhttp://origin-www.premierleague.com/page/Headlines/0,,12306~2189552,00.html
p274
aVhttp://origin-www.premierleague.com/page/Headlines/0,,12306~2357197,00.html
p275
aVhttp://orig-www.premierleague.com/en-gb/news/news/2015-16/oct/131015-digital-review-around-the-clubs-on-social-media.html
p276
aVhttp://orig-www.premierleague.com/en-gb/news/news/2015-16/aug/110815-fpl-scout-gamechanger-managers-should-target-sergio-aguero-and-alexis-sanchez.html
p277
aVhttp://orig-www.premierleague.com/en-gb/news/news/2015-16/feb/250216-talking-tactics-manchester-united-arsenal.html
p278
asS'char'
p279
(lp280
Vhttp://mobile.premierleague.com/staticFiles/71/4/0,,12306~132209,00.pdf
p281
aVhttp://mobile.premierleague.com/staticFiles/2e/6d/0,,12306~93486,00.pdf
p282
aVhttp://mobile.premierleague.com/staticFiles/73/4/0,,12306~132211,00.pdf
p283
asS'boolean'
p284
(lp285
sS'array'
p286
(lp287
Vhttps://www.premierleague.com/communities/programmes/schools/pl-primary-stars
p288
aVhttps://www.premierleague.com/news/67833
p289
aVhttps://www.premierleague.com/news/65107#!
p290
aVhttps://www.premierleague.com/news/116815
p291
aVhttps://www.premierleague.com/news/60725
p292
aVhttps://www.premierleague.com/news/69198#!
p293
aVhttps://www.premierleague.com/news/101229#!
p294
aVhttps://www.premierleague.com/news/75107
p295
aVhttps://www.premierleague.com/news/83604#!
p296
aVhttps://www.premierleague.com/news/83742#!
p297
asS'binary'
p298
(lp299
Vhttp://orig-www.premierleague.com/en-gb/news/news/2015-16/mar/070316-matchweek29-west-brom-vs-man-utd-post-match-statistics.html
p300
asS'container'
p301
(lp302
Vhttps://www.premierleague.com/news/59886#!
p303
aVhttp://origin-www.premierleague.com/staticFiles/1a/63/0,,12306~90906,00.pdf
p304
aVhttp://www.premierleague.com/en-gb/fans/faqs/when-does-2013-14-season-start/
p305
aVhttp://www2.premierleague.com/en-gb/matchday/matches/2015-2016/epl.past-meetings.html/arsenal-vs-everton
p306
aVhttp://orig-www.premierleague.com/en-gb/communities/2014-15/premier-league-and-the-fa-facilities-fund-boost-for-grassroots.html
p307
asS'borland'
p308
(lp309
sS'controls'
p310
(lp311
Vhttps://www.premierleague.com/gallery/64046
p312
aVhttps://www.premierleague.com/gallery/118076
p313
aVhttps://www.premierleague.com/gallery/126284
p314
aVhttp://orig-www.premierleague.com/content/dam/premierleague/site-content/about/fifa-laws-of-the-game-2015-16-referee.pdf
p315
aVhttp://origin-www.premierleague.com/page/Headlines/0,,12306~2330714,00.html
p316
aVhttp://origin-www.premierleague.com/staticFiles/da/f/0,,12306~135130,00.pdf
p317
aVhttps://www.premierleague.com/gallery/118076#!
p318
aVhttps://www.premierleague.com/gallery/64046#!
p319
aVhttp://mobile.premierleague.com/page/Galleries/0,,12306~1888979,00.html
p320
asS'perl'
p321
(lp322
sS'component'
p323
(lp324
Vhttps://www.premierleague.com/news/68338#!
p325
aVhttps://www.premierleague.com/news/63261
p326
aVhttps://www.premierleague.com/news/96952#!
p327
aVhttps://www.premierleague.com/news/61527
p328
aVhttps://www.premierleague.com/communities/programmes/community-programmes/pl-kicks
p329
aVhttps://www.premierleague.com/news/84046#!
p330
aVhttps://www.premierleague.com/news/74529#!
p331
aVhttps://www.premierleague.com/news/61207
p332
aVhttps://www.premierleague.com/news/122538
p333
aVhttps://www.premierleague.com/news/84046
p334
asS'actionlistener'
p335
(lp336
sS'ansi'
p337
(lp338
Vhttps://www.premierleague.com/players/12428/Ansi-Agolli/overview
p339
aVhttps://www.premierleague.com/match/10121
p340
aVhttps://www.premierleague.com/match/13323
p341
aVhttps://www.premierleague.com/match/10104
p342
aVhttps://www.premierleague.com/matchweek/1190/blog?match=true
p343
aVhttps://www.premierleague.com/match/13364
p344
aVhttps://www.premierleague.com/match/13386
p345
aVhttps://www.premierleague.com/match/10029
p346
aVhttps://www.premierleague.com/match/10073
p347
aVhttps://www.premierleague.com/match/13407
p348
asS'cpan'
p349
(lp350
sS'java'
p351
(lp352
Vhttp://www2.premierleague.com/en-gb/matchday/matches/2015-2016/epl.past-meetings.html/arsenal-vs-everton
p353
asS'class'
p354
(lp355
Vhttps://www.premierleague.com/news/59526#!
p356
aVhttps://www.premierleague.com/news/65602
p357
aVhttps://www.premierleague.com/news/117012
p358
aVhttps://www.premierleague.com/youth/education
p359
aVhttps://www.premierleague.com/news/58932
p360
aVhttps://www.premierleague.com/matchweek/1275/latest#!
p361
aVhttps://www.premierleague.com/
p362
aVhttps://www.premierleague.com/news/58932#!
p363
aVhttps://www.premierleague.com/news/65041
p364
aVhttp://review.premierleague.com/2014-15/the-football/world-class-premier-league-players.html
p365
asS'compiler'
p366
(lp367
Vhttp://www.premierleague.com/en-gb/news/features/how-the-fixture-list-is-compiled.html
p368
aVhttp://orig-www.premierleague.com/en-gb/news/features/how-the-fixture-list-is-compiled.html
p369
asS'alloc'
p370
(lp371
sS'compile'
p372
(lp373
Vhttp://www.premierleague.com/en-gb/news/features/how-the-fixture-list-is-compiled.html
p374
aVhttp://orig-www.premierleague.com/en-gb/matchday/matches/2014-2015/epl.tickets.html/burnley-vs-arsenal
p375
asS'alias'
p376
(lp377
sS'applet'
p378
(lp379
sS'api'
p380
(lp381
Vhttps://users.premierleague.com/
p382
aVhttps://fantasy.premierleague.com/
p383
aVhttps://www.premierleague.com/en-gb/players/index.html?paramSearchType=BY_STAT&paramSeason=2014-2015
p384
aVhttps://fantasy.premierleague.com/player-list/
p385
aVhttps://www.premierleague.com/page/Statistics
p386
aVhttp://www2.premierleague.com/en-gb/matchday/matches/2015-2016/epl.past-meetings.html/arsenal-vs-everton
p387
aVhttp://origin-www.premierleague.com/page/Top10Defenders/0,,12306,00.html
p388
aVhttp://www.premierleague.com/en-gb/news/news/2014-15/aug/fantasy-premier-league-2014-15-app-available.html
p389
aVhttp://www.premierleague.com/en-gb/news/news/2014-15/jul/fantasy-premier-league-2014-15-launches.html
p390
asS'algorithms'
p391
(lp392
sssS'Sports'
p393
(dp394
g3
I00
sg4
g170
sg6
g7
((lp395
S'Soccer'
p396
ag1
atp397
Rp398
sg11
I10198745
sg12
F0.0
sg13
(dp399
S'ball team'
p400
(lp401
Vhttps://www.premierleague.com/
p402
aVhttps://fantasy.premierleague.com/a/team/375280#!
p403
aVhttps://www.premierleague.com/match/14108
p404
aVhttps://www.premierleague.com/fixtures
p405
aVhttps://www.premierleague.com/partners/nike#!
p406
aVhttps://www.premierleague.com/about/football-partners
p407
aVhttps://www.premierleague.com/page/manchester-united
p408
aVhttps://fantasy.premierleague.com/help/
p409
aVhttps://www.premierleague.com/gallery/60417
p410
aVhttps://www.premierleague.com/page/hull-city
p411
asS'avg nba'
p412
(lp413
sS'wnba'
p414
(lp415
sS'ncaa'
p416
(lp417
Vhttps://www.premierleague.com/en-gb/matchday/tickets.html
p418
aVhttp://www.premierleague.com/en-gb/fans/faqs/when-does-2013-14-season-start/
p419
aVhttps://www.premierleague.com/news/60125#!
p420
aVhttps://www.premierleague.com/en-gb/matchday/form-guide.html
p421
aVhttp://www.premierleague.com/en-gb/news/news/2014-15/january-transfer-window-2015.html
p422
aVhttp://orig-www.premierleague.com/en-gb/news/news/2016-17/jun/110616-released-colmer-relishing-life-after-southampton-in-america.html
p423
aVhttps://www.premierleague.com/news/60125?_escaped_fragment_=
p424
aVhttps://www.premierleague.com/news/60125
p425
aVhttps://www.premierleague.com/news/60125?_escaped_fragment_=#!
p426
aVhttp://www.premierleague.com/en-gb/clubs/profile.squads.html/crystal-palace
p427
asS'laker'
p428
(lp429
Vhttp://www.premierleague.com/en-gb/fans/faqs/when-does-2013-14-season-start/
p430
asS'teams'
p431
(lp432
Vhttps://www.premierleague.com/clubs
p433
aVhttps://www.premierleague.com/stats/top/clubs
p434
aVhttps://www.premierleague.com/news/79394
p435
aVhttps://www.premierleague.com/news/58754
p436
aVhttps://www.premierleague.com/youth
p437
aVhttps://www.premierleague.com/
p438
aVhttps://fantasy.premierleague.com/
p439
aVhttps://www.premierleague.com/stats
p440
aVhttps://www.premierleague.com/en-gb/matchday/league-table.html
p441
aVhttps://www.premierleague.com/news/58756
p442
asS'fans football'
p443
(lp444
Vhttps://fantasy.premierleague.com/
p445
aVhttp://fanresearch.premierleague.com/football-nation/domestic-fanbase.aspx
p446
aVhttps://www.premierleague.com/fan-panel
p447
aVhttps://www.premierleague.com/
p448
aVhttp://fanresearch.premierleague.com/global-fanbase.aspx
p449
aVhttp://fanresearch.premierleague.com/football-nation/beyond-the-stadium.aspx
p450
aVhttps://users.premierleague.com/
p451
aVhttp://review.premierleague.com/2014-15/the-fans/
p452
aVhttp://review.premierleague.com/2014-15/the-fans/modern-football-fans.html
p453
aVhttp://review.premierleague.com/2014-15/the-fans/value-of-football.html
p454
asS'pacers'
p455
(lp456
Vhttp://www.premierleague.com/content/premierleague/en-gb/matchday/matches/2013-2014/epl.match-report.html/swansea-vs-liverpool
p457
asS'championship team'
p458
(lp459
Vhttps://www.premierleague.com/
p460
aVhttps://www.premierleague.com/page/manchester-united
p461
aVhttps://www.premierleague.com/news/64263#!
p462
aVhttps://www.premierleague.com/u18-premier-league-explained
p463
aVhttps://fantasy.premierleague.com/
p464
aVhttps://www.premierleague.com/managers/8060/overview
p465
aVhttps://www.premierleague.com/en-gb/clubs.html/
p466
aVhttps://www.premierleague.com/en-gb/matchday/league-table.html
p467
aVhttps://www.premierleague.com/managers/8060/overview#!
p468
aVhttp://www.premierleague.com/en-gb/about/history.html
p469
asS'avg league'
p470
(lp471
Vhttps://www.premierleague.com/en-gb/clubs/index.html
p472
aVhttps://www.premierleague.com/news/77002
p473
aVhttp://www.premierleague.com/en-gb/about/history.html
p474
aVhttps://www.premierleague.com/news/84051
p475
aVhttps://www.premierleague.com/news/63261
p476
aVhttps://fantasy.premierleague.com/?fail
p477
aVhttps://www.premierleague.com/en-gb/players/profile.overview.html/adam-lallana
p478
aVhttp://orig-www.premierleague.com/en-gb/news/news/2015-16/mar/120316-matchweek30-key-battle-jordan-ayew-aston-villa-kevin-wimmer-tottenham-hotspur.html
p479
aVhttps://www.premierleague.com/news/63261?_escaped_fragment_=#!
p480
asS'blazers game'
p481
(lp482
Vhttps://fantasy.premierleague.com/a/team/2853145
p483
aVhttps://www.premierleague.com/news/112803
p484
aVhttps://www.premierleague.com/news/112803#!
p485
aVhttp://orig-www.premierleague.com/en-gb/news/news/2015-16/dec/031215-digital-review-around-the-clubs-on-social-media-crystal-palace.html
p486
asS'club league'
p487
(lp488
Vhttps://www.premierleague.com/stats
p489
aVhttps://www.premierleague.com/tables
p490
aVhttps://www.premierleague.com/page/arsenal
p491
aVhttps://www.premierleague.com/clubs/12/Manchester-United/overview
p492
aVhttps://www.premierleague.com/clubs
p493
aVhttps://www.premierleague.com/clubs/11/Manchester-City/overview
p494
aVhttps://www.premierleague.com/stats/top/clubs
p495
aVhttps://www.premierleague.com/
p496
aVhttps://www.premierleague.com/clubs/25/West-Ham-United/overview
p497
aVhttps://www.premierleague.com/youth
p498
asS'ball league'
p499
(lp500
Vhttps://www.premierleague.com/
p501
aVhttps://www.premierleague.com/partners/nike#!
p502
aVhttps://www.premierleague.com/match/14060
p503
aVhttps://www.premierleague.com/fixtures
p504
aVhttps://www.premierleague.com/stats
p505
aVhttps://www.premierleague.com/tickets
p506
aVhttps://www.premierleague.com/video#!
p507
aVhttps://www.premierleague.com/results
p508
aVhttps://www.premierleague.com/clubs
p509
aVhttps://www.premierleague.com/fantasy
p510
asS'nba'
p511
(lp512
Vhttp://www.premierleague.com/en-gb/matchday/matches/2014-2015/epl.html/liverpool-vs-spurs
p513
aVhttps://www.premierleague.com/en-gb/players/profile.overview.html/brad-friedel
p514
aVhttps://www.premierleague.com/en-gb/matchday/league-table.html
p515
aVhttps://www.premierleague.com/page/Statistics
p516
aVhttps://users.premierleague.com/
p517
aVhttps://fantasy.premierleague.com/player-list/
p518
aVhttps://fantasy.premierleague.com/?t=1
p519
aVhttp://www.premierleague.com/content/premierleague/en-gb/news/podcasts.html
p520
aVhttp://mobile.premierleague.com/page/Headlines/0,,12306~1989429,00.html
p521
asS'soccer'
p522
(lp523
Vhttps://www.premierleague.com/clubs/1/Arsenal/overview
p524
aVhttps://www.premierleague.com/clubs/12/Manchester-United/overview
p525
aVhttps://www.premierleague.com/fixtures
p526
aVhttps://www.premierleague.com/
p527
aVhttps://www.premierleague.com/match/1926
p528
aVhttps://fantasy.premierleague.com/
p529
aVhttps://www.premierleague.com/match/3829
p530
aVhttps://www.premierleague.com/page/manchester-city-fc
p531
aVhttps://users.premierleague.com/
p532
aVhttps://www.premierleague.com/page/hull-city
p533
asS'game league'
p534
(lp535
Vhttps://www.premierleague.com/
p536
aVhttps://fantasy.premierleague.com/a/team/375280#!
p537
aVhttps://www.premierleague.com/news/65240
p538
aVhttps://www.premierleague.com/youth/games-programme
p539
aVhttp://iknowthescore.premierleague.com/
p540
aVhttps://www.premierleague.com/referees
p541
aVhttps://www.premierleague.com/news/67814
p542
aVhttps://www.premierleague.com/news/68553
p543
aVhttps://www.premierleague.com/about/football-partners
p544
aVhttps://www.premierleague.com/stats
p545
asS'ball referee'
p546
(lp547
Vhttps://www.premierleague.com/referees
p548
aVhttps://www.premierleague.com/referees/16950/overview
p549
aVhttps://www.premierleague.com/
p550
aVhttps://www.premierleague.com/referees/16964/overview
p551
aVhttps://www.premierleague.com/referees/16960/overview
p552
aVhttps://www.premierleague.com/news/96640
p553
aVhttps://www.premierleague.com/news/109964#!
p554
aVhttps://www.premierleague.com/news/118483
p555
aVhttps://www.premierleague.com/news/132700#!
p556
aVhttps://www.premierleague.com/referees/16989/overview
p557
asssg172
(dp558
g3
I01
sg4
g250
sg6
g7
((lp559
tp560
Rp561
sg11
I0
sg12
F0.0
sg13
(dp562
S'bios controller ide'
p563
(lp564
sS'cables drive floppy'
p565
(lp566
sS'motherboard'
p567
(lp568
sS'board overclocking'
p569
(lp570
sS'bios'
p571
(lp572
sS'fsb overclocking'
p573
(lp574
sS'board fsb'
p575
(lp576
sssS'Health'
p577
(dp578
g3
I00
sg4
g170
sg6
g7
((lp579
g85
aS'Fitness'
p580
atp581
Rp582
sg11
I13190
sg12
F0.0
sg13
(dp583
S'cancer'
p584
(lp585
Vhttps://www.premierleague.com/news/60823#!
p586
aVhttp://origin-www.premierleague.com/page/Headlines/0,,12306~2317442,00.html
p587
aVhttp://mobile.premierleague.com/staticFiles/16/94/0,,12306~103446,00.pdf
p588
aVhttp://orig-www.premierleague.com/en-gb/news/news/2016-17/jun/210616-reading-academy-manager-eamonn-dolan-dies.html
p589
aVhttps://www.premierleague.com/news/111364
p590
aVhttps://www.premierleague.com/gallery/101825
p591
aVhttp://origin-www.premierleague.com/page/Magazinedettail/0,,12306~1374863,00.html
p592
aVhttps://www.premierleague.com/news/123631#!
p593
aVhttp://origin-www.premierleague.com/page/Health/0,,12306,00.html
p594
aVhttp://origin-www.premierleague.com/page/Headlines/0,,12306~2323686,00.html
p595
asS'squats'
p596
(lp597
Vhttps://www.premierleague.com/en-gb/clubs.html/
p598
asS'carb carbs'
p599
(lp600
sS'walkers'
p601
(lp602
Vhttps://www.premierleague.com/en-gb/players/profile.html/kyle-walker
p603
aVhttp://fanresearch.premierleague.com/club-profiles/leicester-city.aspx
p604
aVhttp://origin-www.premierleague.com/page/Headlines/0,,12306~2362583,00.html
p605
aVhttp://origin-www.premierleague.com/page/NewsArchive/0,,12306,190,00.html
p606
aVhttp://orig-www.premierleague.com/content/premierleague/en-gb/news/features/on-this-day-september
p607
aVhttp://origin-www.premierleague.com/page/Headlines/0,,12306~2204150,00.html
p608
aVhttp://origin-www.premierleague.com/page/Headlines/0,,12306~2321644,00.html
p609
aVhttp://origin-www.premierleague.com/page/Headlines/0,,12306~2221833,00.html
p610
aVhttps://fantasy.premierleague.com/a/leagues/standings/22073/classic#!
p611
aVhttp://mobile.premierleague.com/page/Headlines/0,,12306~2262255,00.html
p612
asS'medical patient'
p613
(lp614
Vhttp://mobile.premierleague.com/page/Magazinedettail/0,,12306~1538885,00.html
p615
aVhttp://origin-www.premierleague.com/page/Headlines/0,,12306~2380882,00.html
p616
aVhttp://origin-www.premierleague.com/page/Headlines/0,,12306~2439882,00.html
p617
aVhttp://origin-www.premierleague.com/page/Headlines/0,,12306~2145637,00.html
p618
aVhttp://review.premierleague.com/2014-15/the-football/football-coaching.html
p619
aVhttp://mobile.premierleague.com/page/Headlines/0,,12306~2322421,00.html
p620
aVhttp://mobile.premierleague.com/page/Headlines/0,,12306~1427758,00.html
p621
asS'hospital patients'
p622
(lp623
Vhttp://mobile.premierleague.com/page/Magazinedettail/0,,12306~1443848,00.html
p624
aVhttp://origin-www.premierleague.com/page/Magazinedettail/0,,12306~1374863,00.html
p625
aVhttp://mobile.premierleague.com/page/Magazinedettail/0,,12306~2052100,00.html
p626
asS'aids'
p627
(lp628
Vhttp://origin-www.premierleague.com/page/Headlines/0,,12306~2318455,00.html
p629
aVhttps://www.premierleague.com/youth/elite-performance
p630
aVhttps://www.premierleague.com/news/60479#!
p631
aVhttps://www.premierleague.com/news/58934#!
p632
aVhttp://origin-www.premierleague.com/page/NewsArchive/0,,12306,255,00.html
p633
aVhttp://mobile.premierleague.com/page/Headlines/0,,12306~1988805,00.html
p634
aVhttp://orig-www.premierleague.com/en-gb/news/news/2014-15/nov/211114-vurnon-anita-and-emmanuel-riviere-pledge-support-to-newcastle-family-football-project.html
p635
aVhttp://mobile.premierleague.com/page/Magazinedettail/0,,12306~1538885,00.html
p636
aVhttp://orig-www.premierleague.com/en-gb/news/news/2014-15/may/310515-news-in-brief.html
p637
aVhttp://orig-www.premierleague.com/en-gb/communities/2014-15/man-utd-legend-paul-scholes-visits-facilities-fund-pitches-in-salford.html
p638
asS'hospital medical'
p639
(lp640
Vhttp://mobile.premierleague.com/page/Headlines/0,,12306~2522994,00.html
p641
aVhttp://origin-www.premierleague.com/page/Headlines/0,,12306~2347706,00.html
p642
aVhttp://origin-www.premierleague.com/page/Headlines/0,,12306~2403804,00.html
p643
aVhttp://origin-www.premierleague.com/page/Headlines/0,,12306~2307417,00.html
p644
aVhttp://origin-www.premierleague.com/page/Headlines/0,,12306~2305369,00.html
p645
aVhttp://origin-www.premierleague.com/page/Headlines/0,,12306~1799961,00.html
p646
aVhttp://mobile.premierleague.com/page/Headlines/0,,12306~2406179,00.html
p647
aVhttp://mobile.premierleague.com/page/Magazinedettail/0,,12306~2052100,00.html
p648
aVhttp://orig-www.premierleague.com/en-gb/matchday/matches/2014-2015/epl.match-preview.html/spurs-vs-swansea
p649
asS'doctor health'
p650
(lp651
Vhttp://mobile.premierleague.com/page/Magazinedettail/0,,12306~1570234,00.html
p652
aVhttp://origin-www.premierleague.com/page/Magazinedettail/0,,12306~1414971,00.html
p653
aVhttp://origin-www.premierleague.com/page/Headlines/0,,12306~2248066,00.html
p654
aVhttp://origin-www.premierleague.com/page/Headlines/0,,12306~2224833,00.html
p655
aVhttp://origin-www.premierleague.com/page/Headlines/0,,12306~2336738,00.html
p656
asS'aerobic'
p657
(lp658
Vhttps://www.premierleague.com/en-gb/players/index.html?paramSearchType=BY_CLUB&paramSeason=squad&paramClubId=1
p659
aVhttp://www.premierleague.com/en-gb/clubs/profile.overview.html/leicester
p660
aVhttp://vle.premierleague.com/file.php/204/147/16846/Sports%20Nutrition%20Ass%202%20VERSION2.doc
p661
aVhttp://www.premierleague.com/en-gb/clubs/profile.overview.html/stoke
p662
asS'fat muscle'
p663
(lp664
Vhttp://vle.premierleague.com/file.php/204/147/16846/Sports%20Nutrition%20Ass%202%20VERSION2.doc
p665
asS'aerobics'
p666
(lp667
sS'treadmill'
p668
(lp669
Vhttp://mobile.premierleague.com/page/Magazinedettail/0,,12306~2368035,00.html
p670
asS'acupuncture'
p671
(lp672
sS'nurse'
p673
(lp674
Vhttp://mobile.premierleague.com/staticFiles/16/94/0,,12306~103446,00.pdf
p675
aVhttp://origin-www.premierleague.com/page/Headlines/0,,12306~2266005,00.html
p676
aVhttp://origin-www.premierleague.com/page/Headlines/0,,12306~2361344,00.html
p677
aVhttp://origin-www.premierleague.com/page/Headlines/0,,12306~2205193,00.html
p678
aVhttp://origin-www.premierleague.com/page/Headlines/0,,12306~2142220,00.html
p679
aVhttp://mobile.premierleague.com/staticFiles/6b/44/0,,12306~148587,00.pdf
p680
aVhttp://mobile.premierleague.com/page/Magazinedettail/0,,12306~2445993,00.html
p681
asS'hiv'
p682
(lp683
Vhttp://origin-www.premierleague.com/page/Headlines/0,,12306~2318455,00.html
p684
aVhttp://origin-www.premierleague.com/page/NewsArchive/0,,12306,255,00.html
p685
aVhttp://mobile.premierleague.com/staticFiles/1a/63/0,,12306~90906,00.pdf
p686
aVhttp://mobile.premierleague.com/page/Headlines/0,,12306~1988805,00.html
p687
aVhttp://mobile.premierleague.com/page/Headlines/0,,12306~1417061,00.html
p688
aVhttp://orig-www.premierleague.com/en-gb/news/news/2013-14/oct/coaches-praise-work-of-premier-league-premier-skills-programme.html
p689
asS'cardiology'
p690
(lp691
sS'cholesterol'
p692
(lp693
Vhttp://mobile.premierleague.com/staticFiles/6b/44/0,,12306~148587,00.pdf
p694
aVhttp://orig-www.premierleague.com/en-gb/news/news/2015-16/dec/091215-newcastle-united-daryl-janmaat-newcastle-united-foundation.html
p695
asS'calories fat'
p696
(lp697
sS'diet'
p698
(lp699
Vhttp://vle.premierleague.com/file.php/204/147/16846/Sports%20Nutrition%20Ass%202%20VERSION2.doc
p700
aVhttps://www.premierleague.com/news/58956#!
p701
aVhttp://origin-www.premierleague.com/page/Headlines/0,,12306~2441323,00.html
p702
aVhttp://origin-www.premierleague.com/page/Headlines/0,,12306~2307765,00.html
p703
aVhttps://www.premierleague.com/en-gb/players/profile.overview.html/kasper-schmeichel
p704
aVhttps://www.premierleague.com/en-gb/referees.html
p705
aVhttp://mobile.premierleague.com/staticFiles/ee/93/0,,12306~103406,00.pdf
p706
aVhttp://mobile.premierleague.com/page/Magazinedettail/0,,12306~1815969,00.html
p707
aVhttp://mobile.premierleague.com/page/Headlines/0,,12306~2049927,00.html
p708
aVhttp://mobile.premierleague.com/staticFiles/da/f/0,,12306~135130,00.pdf
p709
asS'doctor medical'
p710
(lp711
Vhttp://origin-www.premierleague.com/page/Headlines/0,,12306~2347706,00.html
p712
aVhttp://origin-www.premierleague.com/page/Headlines/0,,12306~2417385,00.html
p713
aVhttp://origin-www.premierleague.com/page/Headlines/0,,12306~2239672,00.html
p714
aVhttp://orig-www.premierleague.com/content/dam/premierleague/site-content/News/publications/other/youth-development-rules-2013-2014.pdf
p715
aVhttp://origin-www.premierleague.com/staticFiles/4f/53/0,,12306~152399,00.pdf
p716
aVhttp://origin-www.premierleague.com/page/Headlines/0,,12306~2269053,00.html
p717
aVhttp://origin-www.premierleague.com/page/Headlines/0,,12306~2181089,00.html
p718
aVhttp://origin-www.premierleague.com/page/Headlines/0,,12306~2184163,00.html
p719
aVhttp://mobile.premierleague.com/staticFiles/2e/3/0,,12306~131886,00.pdf
p720
aVhttp://mobile.premierleague.com/staticFiles/7c/53/0,,12306~152444,00.pdf
p721
asS'patients treatment'
p722
(lp723
Vhttp://mobile.premierleague.com/page/Magazinedettail/0,,12306~2052100,00.html
p724
aVhttp://origin-www.premierleague.com/page/Magazinedettail/0,,12306~1374863,00.html
p725
aVhttp://origin-www.premierleague.com/page/Headlines/0,,12306~2209378,00.html
p726
aVhttp://mobile.premierleague.com/page/Magazinedettail/0,,12306~1443848,00.html
p727
aVhttp://mobile.premierleague.com/page/Magazinedettail/0,,12306~1538885,00.html
p728
asS'health nutritional'
p729
(lp730
Vhttp://mobile.premierleague.com/page/CommunityHeadlines/0,,12306~1645807,00.html
p731
asS'diabetes'
p732
(lp733
Vhttp://mobile.premierleague.com/staticFiles/16/94/0,,12306~103446,00.pdf
p734
aVhttp://mobile.premierleague.com/page/Magazinedettail/0,,12306~2367991,00.html
p735
aVhttp://mobile.premierleague.com/staticFiles/ec/65/0,,12306~91628,00.pdf
p736
aVhttp://origin-www.premierleague.com/page/Headlines/0,,12306~2253558,00.html
p737
aVhttp://orig-www.premierleague.com/en-gb/news/news/2015-16/dec/091215-newcastle-united-daryl-janmaat-newcastle-united-foundation.html
p738
asS'eating fat'
p739
(lp740
Vhttp://mobile.premierleague.com/page/Magazinedettail/0,,12306~2367991,00.html
p741
aVhttp://origin-www.premierleague.com/page/Headlines/0,,12306~2253558,00.html
p742
asS'medical treatment'
p743
(lp744
Vhttp://orig-www.premierleague.com/en-gb/matchday/matches/2015-2016/epl.past-meetings.html/stoke-vs-bournemouth
p745
aVhttp://origin-www.premierleague.com/page/Headlines/0,,12306~2290432,00.html
p746
aVhttp://origin-www.premierleague.com/page/Headlines/0,,12306~2311528,00.html
p747
aVhttp://origin-www.premierleague.com/page/Magazinedettail/0,,12306~2052100,00.html
p748
aVhttp://origin-www.premierleague.com/page/Headlines/0,,12306~2180460,00.html
p749
aVhttp://origin-www.premierleague.com/page/Headlines/0,,12306~2206236,00.html
p750
aVhttp://www.premierleague.com/en-gb/rules-regulations.html
p751
aVhttp://origin-www.premierleague.com/page/Headlines/0,,12306~2144475,00.html
p752
aVhttp://mobile.premierleague.com/page/Headlines/0,,12306~2522994,00.html
p753
aVhttp://origin-www.premierleague.com/page/Headlines/0,,12306~1799961,00.html
p754
asS'insulin'
p755
(lp756
sS'fitness'
p757
(lp758
Vhttp://www.premierleague.com/en-gb/news/features/peak-performance-the-science-behind-player-fitness.html
p759
aVhttps://www.premierleague.com/en-gb/players/index.html?paramSearchType=BY_CLUB&paramSeason=squad&paramClubId=1
p760
aVhttps://www.premierleague.com/news/128870#!
p761
aVhttps://www.premierleague.com/news/58973
p762
aVhttps://www.premierleague.com/news/128872
p763
aVhttps://www.premierleague.com/news/132822#!
p764
aVhttps://users.premierleague.com/
p765
aVhttps://www.premierleague.com/news/106947
p766
aVhttp://www.premierleague.com/en-gb/news/news/2014-15/nov/161114-sergio-aguero-in-numbers-on-course-to-break-goals-scored-record.html
p767
aVhttps://www.premierleague.com/youth/elite-performance
p768
asS'health medicine'
p769
(lp770
Vhttps://www.premierleague.com/news/58973
p771
aVhttp://review.premierleague.com/2014-15/pdf/Premier_League_Communities_1415.pdf
p772
aVhttp://origin-www.premierleague.com/staticFiles/46/9b/0,,12306~105286,00.pdf
p773
aVhttp://origin-www.premierleague.com/page/Headlines/0,,12306~2224833,00.html
p774
aVhttp://review.premierleague.com/2014-15/the-communities/premier-league-communities-strategy.html
p775
asssg580
(dp776
g3
I01
sg4
g87
sg6
g7
((lp777
tp778
Rp779
sg11
I18763
sg12
F0.0
sg13
(dp780
S'calories protein'
p781
(lp782
sS'walking'
p783
(lp784
Vhttps://www.premierleague.com/news/128293
p785
aVhttps://www.premierleague.com/news/58756
p786
aVhttps://www.premierleague.com/news/68553
p787
aVhttps://www.premierleague.com/news/69097
p788
aVhttps://www.premierleague.com/news/97642
p789
aVhttps://www.premierleague.com/news/67261
p790
aVhttps://www.premierleague.com/news/68342
p791
aVhttps://www.premierleague.com/news/58895
p792
aVhttps://www.premierleague.com/news/67833
p793
aVhttps://www.premierleague.com/news/67814
p794
asS'exercise protein'
p795
(lp796
sS'aerobic'
p797
(lp798
Vhttps://www.premierleague.com/en-gb/players/index.html?paramSearchType=BY_CLUB&paramSeason=squad&paramClubId=1
p799
aVhttp://vle.premierleague.com/file.php/204/147/16846/Sports%20Nutrition%20Ass%202%20VERSION2.doc
p800
aVhttp://www.premierleague.com/en-gb/clubs/profile.overview.html/stoke
p801
asS'workout'
p802
(lp803
Vhttp://www.premierleague.com/en-gb/news/features/peak-performance-the-science-behind-player-fitness.html
p804
aVhttps://users.premierleague.com/
p805
aVhttp://www.premierleague.com/content/premierleague/en-gb/youth/elite-player-performance-plan.html
p806
aVhttps://www.premierleague.com/managers/2639/overview
p807
aVhttp://origin-www.premierleague.com/page/Headlines/0,,12306~2264928,00.html
p808
aVhttp://origin-www.premierleague.com/page/Headlines/0,,12306~2388321,00.html
p809
aVhttps://www.premierleague.com/news/66892#!
p810
aVhttps://www.premierleague.com/news/67313
p811
aVhttp://orig-www.premierleague.com/en-gb/matchday/matches/2016-2017/epl.match-preview.html/west-brom-vs-chelsea
p812
aVhttp://orig-www.premierleague.com/content/premierleague/en-gb/matchday/matches/2015-2016/epl.tickets.html/watford-vs-southampton
p813
asS'challenge walk'
p814
(lp815
Vhttp://origin-www.premierleague.com/page/Headlines/0,,12306~2265721,00.html
p816
aVhttps://www.premierleague.com/news/61324#!
p817
aVhttps://www.premierleague.com/news/58992
p818
aVhttps://www.premierleague.com/news/59641
p819
aVhttps://www.premierleague.com/communities?_escaped_fragment_=
p820
aVhttp://origin-www.premierleague.com/page/Headlines/0,,12306~2354461,00.html
p821
aVhttp://origin-www.premierleague.com/page/Headlines/0,,12306~2233887,00.html
p822
aVhttp://origin-www.premierleague.com/page/Headlines/0,,12306~2221217,00.html
p823
aVhttp://mobile.premierleague.com/page/Magazinedettail/0,,12306~2229157,00.html
p824
aVhttp://origin-www.premierleague.com/page/Headlines/0,,12306~2142860,00.html
p825
asS'eating protein'
p826
(lp827
sS'fat'
p828
(lp829
Vhttp://vle.premierleague.com/file.php/204/147/16846/Sports%20Nutrition%20Ass%202%20VERSION2.doc
p830
aVhttp://origin-www.premierleague.com/page/Headlines/0,,12306~2253558,00.html
p831
aVhttps://www.premierleague.com/en-gb/referees.html
p832
aVhttp://www.premierleague.com/content/premierleague/en-gb/youth/elite-player-performance-plan.html
p833
aVhttp://mobile.premierleague.com/page/Magazinedettail/0,,12306~2367991,00.html
p834
aVhttps://www.premierleague.com/en-gb/players/profile.html/frank-lampard
p835
asS'dairy milk'
p836
(lp837
sS'calories weight'
p838
(lp839
sS'bodybuilding protein'
p840
(lp841
sS'fitness'
p842
(lp843
Vhttp://www.premierleague.com/en-gb/news/features/peak-performance-the-science-behind-player-fitness.html
p844
aVhttps://www.premierleague.com/news/58973
p845
aVhttps://www.premierleague.com/news/128870#!
p846
aVhttps://www.premierleague.com/youth/elite-performance
p847
aVhttps://users.premierleague.com/
p848
aVhttps://www.premierleague.com/en-gb/matchday/form-guide.html
p849
aVhttps://www.premierleague.com/news/132822#!
p850
aVhttps://www.premierleague.com/news/106947
p851
aVhttps://www.premierleague.com/en-gb/players/index.html?paramSearchType=BY_CLUB&paramSeason=squad&paramClubId=1
p852
aVhttp://www.premierleague.com/en-gb/news/news/2014-15/nov/161114-sergio-aguero-in-numbers-on-course-to-break-goals-scored-record.html
p853
asS'acid diets'
p854
(lp855
sS'eating weight'
p856
(lp857
Vhttp://mobile.premierleague.com/staticFiles/ee/93/0,,12306~103406,00.pdf
p858
asS'exercise weight'
p859
(lp860
Vhttps://fantasy.premierleague.com/help/
p861
aVhttp://origin-www.premierleague.com/page/Headlines/0,,12306~2221217,00.html
p862
aVhttp://mobile.premierleague.com/staticFiles/c3/4d/0,,12306~150979,00.doc
p863
asssg396
(dp864
g3
I01
sg4
g5
sg6
g7
((lp865
tp866
Rp867
sg11
I3204300
sg12
F0.0
sg13
(dp868
S'fifa'
p869
(lp870
Vhttps://www.premierleague.com/
p871
aVhttps://www.premierleague.com/news/67814
p872
aVhttps://www.premierleague.com/about/football-partners
p873
aVhttps://www.premierleague.com/referees
p874
aVhttp://orig-www.premierleague.com/content/dam/premierleague/site-content/about/fifa-laws-of-the-game-2015-16.pdf
p875
aVhttps://www.premierleague.com/news/60818#!
p876
aVhttps://www.premierleague.com/partners/ea-sports
p877
aVhttps://www.premierleague.com/news/61427
p878
aVhttp://www.premierleague.com/content/premierleague/en-gb/about/formal-relations.html
p879
aVhttp://www.premierleague.com/en-gb/news/news/2013-14/oct/ea-sports-launch-league-for-fantasy-premier-league-managers.html
p880
asS'liverpool'
p881
(lp882
Vhttps://www.premierleague.com/clubs/10/Liverpool/overview
p883
aVhttps://www.premierleague.com/clubs/10/Liverpool/stadium
p884
aVhttps://www.premierleague.com/clubs/10/Liverpool/squad
p885
aVhttps://www.premierleague.com/clubs/10/Liverpool/stats
p886
aVhttps://www.premierleague.com/fixtures
p887
aVhttps://www.premierleague.com/clubs/10/Liverpool/tickets
p888
aVhttps://www.premierleague.com/
p889
aVhttps://www.premierleague.com/players/3712/Jordan-Henderson/overview
p890
aVhttp://www.premierleague.com/en-gb/matchday/matches/2014-2015/epl.html/arsenal-vs-liverpool
p891
aVhttps://www.premierleague.com/players/3154/Daniel-Sturridge/overview
p892
asS'mls'
p893
(lp894
Vhttps://fantasy.premierleague.com/?fail
p895
aVhttps://www.premierleague.com/news/62689
p896
aVhttps://users.premierleague.com/
p897
aVhttps://www.premierleague.com/news/62772#!
p898
aVhttps://www.premierleague.com/managers/9139/overview#!
p899
aVhttps://www.premierleague.com/page/manchester-united
p900
aVhttps://www.premierleague.com/page/Statistics
p901
aVhttps://www.premierleague.com/news/117639
p902
aVhttps://www.premierleague.com/news/62772
p903
aVhttp://www.premierleague.com/en-gb/fans/faqs/when-does-2013-14-season-start/
p904
asS'lazio'
p905
(lp906
Vhttps://www.premierleague.com/clubs/95/Lazio/overview#!
p907
aVhttps://www.premierleague.com/clubs/95/Lazio/stats
p908
aVhttps://www.premierleague.com/clubs/95/Lazio/results
p909
aVhttps://www.premierleague.com/clubs/95/Lazio/tickets
p910
aVhttps://www.premierleague.com/clubs/95/Lazio/fixtures
p911
aVhttps://www.premierleague.com/players/6798/Miroslav-Klose/stats
p912
aVhttps://www.premierleague.com/players/6788/Senad-Lulic/overview#!
p913
aVhttps://www.premierleague.com/players/3951/Lorik-Cana/overview
p914
aVhttps://www.premierleague.com/players/6765/Federico-Marchetti/overview#!
p915
aVhttps://www.premierleague.com/players/6788/Senad-Lulic/stats
p916
asS'bundesliga'
p917
(lp918
Vhttps://www.premierleague.com/news/64084#!
p919
aVhttps://www.premierleague.com/managers/5285/overview
p920
aVhttps://www.premierleague.com/managers/5119/overview
p921
aVhttps://www.premierleague.com/news/66231
p922
aVhttps://users.premierleague.com/
p923
aVhttps://www.premierleague.com/news/106616#!
p924
aVhttps://www.premierleague.com/news/60169
p925
aVhttps://www.premierleague.com/en-gb/matchday/matches.html
p926
aVhttps://www.premierleague.com/news/68213
p927
aVhttps://www.premierleague.com/en-gb/matchday/league-table.html
p928
asS'premiership'
p929
(lp930
Vhttps://www.premierleague.com/
p931
aVhttps://fantasy.premierleague.com/
p932
aVhttps://www.premierleague.com/fixtures
p933
aVhttps://www.premierleague.com/stats
p934
aVhttps://users.premierleague.com/
p935
aVhttps://www.premierleague.com/video
p936
aVhttps://www.premierleague.com/clubs
p937
aVhttps://www.premierleague.com/en-gb/matchday/league-table.html
p938
aVhttps://www.premierleague.com/en-gb/news.html
p939
aVhttps://www.premierleague.com/history/2015-16
p940
asS'leeds'
p941
(lp942
Vhttps://www.premierleague.com/clubs/9/Leeds-United/overview
p943
aVhttps://www.premierleague.com/clubs/9/Leeds-United/stats
p944
aVhttps://www.premierleague.com/clubs/9/Leeds-United/tickets#!
p945
aVhttps://www.premierleague.com/clubs/43/Burnley/stadium
p946
aVhttps://www.premierleague.com/clubs/9/Leeds-United/squad
p947
aVhttps://www.premierleague.com/clubs/9/Leeds-United/fixtures
p948
aVhttps://www.premierleague.com/news/63955
p949
aVhttps://www.premierleague.com/players/239/Gary-Speed/overview
p950
aVhttps://www.premierleague.com/news/59999
p951
aVhttps://www.premierleague.com/news/63955#!
p952
asS'juventus'
p953
(lp954
Vhttps://www.premierleague.com/clubs/62/Juventus/overview#!
p955
aVhttps://www.premierleague.com/clubs/62/Juventus/stats#!
p956
aVhttps://www.premierleague.com/clubs/62/Juventus/stadium#!
p957
aVhttps://www.premierleague.com/news/103155#!
p958
aVhttps://www.premierleague.com/news/68361#!
p959
aVhttps://www.premierleague.com/clubs/62/Juventus/stats
p960
aVhttps://www.premierleague.com/news/65585
p961
aVhttps://www.premierleague.com/clubs/62/Juventus/squad#!
p962
aVhttps://www.premierleague.com/news/69198#!
p963
aVhttps://www.premierleague.com/news/68299
p964
asS'bayern'
p965
(lp966
Vhttps://www.premierleague.com/news/67833
p967
aVhttps://www.premierleague.com/players/5260/David-Alaba/stats
p968
aVhttps://www.premierleague.com/news/58908
p969
aVhttps://www.premierleague.com/players/5260/David-Alaba/overview#!
p970
aVhttps://www.premierleague.com/news/64146
p971
aVhttps://www.premierleague.com/players/2658/Arjen-Robben/stats#!
p972
aVhttps://www.premierleague.com/players/5109/Robert-Lewandowski/stats
p973
aVhttps://www.premierleague.com/players/5252/Manuel-Neuer/stats
p974
aVhttps://www.premierleague.com/news/60169
p975
aVhttps://www.premierleague.com/managers/5285/overview
p976
asS'uefa'
p977
(lp978
Vhttps://www.premierleague.com/news/58908
p979
aVhttps://www.premierleague.com/news/58756
p980
aVhttps://www.premierleague.com/news/46316#!
p981
aVhttps://www.premierleague.com/news/63867
p982
aVhttps://www.premierleague.com/
p983
aVhttps://fantasy.premierleague.com/
p984
aVhttp://origin-www.premierleague.com/page/liverpool-football-club
p985
aVhttps://www.premierleague.com/about/football-partners
p986
aVhttps://www.premierleague.com/en-gb/matchday/uefa-champions-league-standings.html
p987
aVhttps://www.premierleague.com/news/63867#!
p988
asS'hooliganism'
p989
(lp990
Vhttp://mobile.premierleague.com/page/History/0,,12306,00.html
p991
aVhttp://mobile.premierleague.com/staticFiles/eb/65/0,,12306~91627,00.pdf
p992
asssS'Root'
p993
(dp994
g3
I00
sg4
Nsg6
g7
((lp995
g168
ag577
ag393
atp996
Rp997
sg11
I0
sg12
F1.0
sg13
(dp998
ss.